	.section	__TEXT,__text,regular,pure_instructions
	.p2align	4, 0x90
__ZN100_$LT$core..slice..Iter$LT$$u27$a$C$$u20$T$GT$$u20$as$u20$core..iter..traits..DoubleEndedIterator$GT$9next_back17h428f196a474af913E:
	.cfi_startproc
	pushq	%rbp
	.cfi_def_cfa_offset 16
	.cfi_offset %rbp, -16
	movq	%rsp, %rbp
	.cfi_def_cfa_register %rbp
	subq	$64, %rsp
	movq	(%rdi), %rax
	movq	%rdi, -24(%rbp)
	movq	%rax, %rdi
	callq	__ZN4core3ptr33_$LT$impl$u20$$BP$const$u20$T$GT$7is_null17h0628ffab54a5a974E
	movb	%al, -25(%rbp)
	callq	__ZN4core3mem7size_of17hc85f0091669efbbaE
	movq	%rax, -40(%rbp)
	movq	-40(%rbp), %rax
	cmpq	$0, %rax
	je	LBB0_7
	movq	-24(%rbp), %rax
	movq	8(%rax), %rdi
	callq	__ZN4core3ptr33_$LT$impl$u20$$BP$const$u20$T$GT$7is_null17h0628ffab54a5a974E
	movb	%al, -41(%rbp)
	jmp	LBB0_7
LBB0_7:
	movq	-24(%rbp), %rax
	movq	(%rax), %rcx
	cmpq	8(%rax), %rcx
	jne	LBB0_9
	movq	$0, -16(%rbp)
	jmp	LBB0_14
LBB0_9:
	callq	__ZN4core3mem7size_of17hc85f0091669efbbaE
	cmpq	$0, %rax
	jne	LBB0_11
	movq	-24(%rbp), %rax
	movq	8(%rax), %rdi
	movq	$-1, %rsi
	callq	__ZN4core3ptr33_$LT$impl$u20$$BP$const$u20$T$GT$15wrapping_offset17h8f981aa157871fa6E
	movq	-24(%rbp), %rsi
	movq	%rax, 8(%rsi)
	movq	(%rsi), %rax
	movq	%rax, -8(%rbp)
	jmp	LBB0_12
LBB0_11:
	movq	-24(%rbp), %rax
	movq	8(%rax), %rdi
	movq	$-1, %rsi
	callq	__ZN4core3ptr33_$LT$impl$u20$$BP$const$u20$T$GT$6offset17hc56c58811b8e26d3E
	movq	-24(%rbp), %rsi
	movq	%rax, 8(%rsi)
	movq	8(%rsi), %rax
	movq	%rax, -8(%rbp)
LBB0_12:
	movq	-8(%rbp), %rax
	movq	%rax, -56(%rbp)
	movq	-56(%rbp), %rax
	movq	%rax, -16(%rbp)
LBB0_14:
	movq	-16(%rbp), %rax
	addq	$64, %rsp
	popq	%rbp
	retq
	.cfi_endproc

	.p2align	4, 0x90
__ZN100_$LT$core..slice..Iter$LT$$u27$a$C$$u20$T$GT$$u20$as$u20$core..iter..traits..DoubleEndedIterator$GT$9try_rfold17h7e1f2774431e8606E:
Lfunc_begin0:
	.cfi_startproc
	.cfi_personality 155, _rust_eh_personality
	.cfi_lsda 16, Lexception0
	pushq	%rbp
	.cfi_def_cfa_offset 16
	.cfi_offset %rbp, -16
	movq	%rsp, %rbp
	.cfi_def_cfa_register %rbp
	subq	$928, %rsp
	movq	%rdx, -344(%rbp)
	movq	%rcx, -336(%rbp)
	movb	$0, -61(%rbp)
	movb	$0, -59(%rbp)
	movb	$0, -62(%rbp)
	movb	$0, -60(%rbp)
	movb	$0, -58(%rbp)
	movb	$0, -57(%rbp)
	movb	$1, -62(%rbp)
	movq	%rsi, -312(%rbp)
	movq	%rdi, -352(%rbp)
LBB1_1:
	movq	-352(%rbp), %rax
	movq	(%rax), %rsi
	movq	8(%rax), %rdi
Ltmp0:
	callq	__ZN4core3num23_$LT$impl$u20$usize$GT$12wrapping_sub17h678b23997a3005c9E
Ltmp1:
	movq	%rax, -360(%rbp)
	jmp	LBB1_3
LBB1_2:
	jmp	LBB1_59
LBB1_3:
Ltmp2:
	callq	__ZN4core3mem7size_of17hc85f0091669efbbaE
Ltmp3:
	movq	%rax, -368(%rbp)
	jmp	LBB1_4
LBB1_4:
	jmp	LBB1_7
LBB1_5:
	movq	-56(%rbp), %rdi
	callq	__Unwind_Resume
	ud2
LBB1_6:
	jmp	LBB1_5
LBB1_7:
	movq	-368(%rbp), %rax
	cmpq	$0, %rax
	jne	LBB1_9
	movq	-360(%rbp), %rax
	movq	%rax, -304(%rbp)
	jmp	LBB1_11
LBB1_9:
	movq	-368(%rbp), %rax
	cmpq	$0, %rax
	sete	%cl
	testb	$1, %cl
	jne	LBB1_129
	movq	-360(%rbp), %rax
	xorl	%ecx, %ecx
	movl	%ecx, %edx
	movq	-368(%rbp), %rsi
	divq	%rsi
	movq	%rax, -304(%rbp)
LBB1_11:
	cmpq	$4, -304(%rbp)
	jb	LBB1_2
	movb	$0, -62(%rbp)
	movb	$1, -61(%rbp)
	movq	-312(%rbp), %rax
Ltmp24:
	movq	%rax, -376(%rbp)
	callq	__ZN4core3mem7size_of17hc85f0091669efbbaE
Ltmp25:
	movq	%rax, -384(%rbp)
	jmp	LBB1_13
LBB1_13:
	movq	-384(%rbp), %rax
	cmpq	$0, %rax
	jne	LBB1_16
	movq	-352(%rbp), %rax
	movq	8(%rax), %rdi
Ltmp28:
	movq	$-1, %rsi
	callq	__ZN4core3ptr33_$LT$impl$u20$$BP$const$u20$T$GT$15wrapping_offset17h8f981aa157871fa6E
Ltmp29:
	movq	%rax, -392(%rbp)
	jmp	LBB1_15
LBB1_15:
	movq	-352(%rbp), %rax
	movq	-392(%rbp), %rcx
	movq	%rcx, 8(%rax)
	movq	(%rax), %rdx
	movq	%rdx, -40(%rbp)
	jmp	LBB1_18
LBB1_16:
	movq	-352(%rbp), %rax
	movq	8(%rax), %rdi
Ltmp26:
	movq	$-1, %rsi
	callq	__ZN4core3ptr33_$LT$impl$u20$$BP$const$u20$T$GT$6offset17hc56c58811b8e26d3E
Ltmp27:
	movq	%rax, -400(%rbp)
	jmp	LBB1_17
LBB1_17:
	movq	-352(%rbp), %rax
	movq	-400(%rbp), %rcx
	movq	%rcx, 8(%rax)
	movq	8(%rax), %rdx
	movq	%rdx, -40(%rbp)
LBB1_18:
	movq	-40(%rbp), %rax
	movq	%rax, -408(%rbp)
	movb	$0, -61(%rbp)
	movq	-376(%rbp), %rax
	movq	%rax, -280(%rbp)
	movq	-408(%rbp), %rcx
	movq	%rcx, -272(%rbp)
	movq	-280(%rbp), %rsi
	movq	-272(%rbp), %rdx
Ltmp30:
	leaq	-344(%rbp), %rdi
	callq	__ZN90_$LT$core..iter..TakeWhile$LT$I$C$$u20$P$GT$$u20$as$u20$core..iter..iterator..Iterator$GT$8try_fold28_$u7b$$u7b$closure$u7d$$u7d$17h583c070c73424346E
Ltmp31:
	movq	%rdx, -416(%rbp)
	movq	%rax, -424(%rbp)
	jmp	LBB1_21
LBB1_20:
	testb	$1, -61(%rbp)
	jne	LBB1_80
	jmp	LBB1_79
LBB1_21:
	movb	$0, -61(%rbp)
Ltmp33:
	movq	-424(%rbp), %rdi
	movq	-416(%rbp), %rsi
	callq	__ZN79_$LT$core..iter..LoopState$LT$C$C$$u20$B$GT$$u20$as$u20$core..ops..try..Try$GT$11into_result17h6c9172525577d170E
Ltmp34:
	movq	%rdx, -432(%rbp)
	movq	%rax, -440(%rbp)
	jmp	LBB1_22
LBB1_22:
	movq	-440(%rbp), %rax
	movq	%rax, -296(%rbp)
	movq	-432(%rbp), %rcx
	movq	%rcx, -288(%rbp)
	movq	-296(%rbp), %rdx
	testq	%rdx, %rdx
	movq	%rdx, -448(%rbp)
	je	LBB1_25
	jmp	LBB1_142
LBB1_142:
	movq	-448(%rbp), %rax
	subq	$1, %rax
	movq	%rax, -456(%rbp)
	je	LBB1_26
	jmp	LBB1_24
LBB1_23:
	cmpq	$0, -296(%rbp)
	je	LBB1_81
	jmp	LBB1_79
LBB1_24:
	ud2
LBB1_25:
	movq	-288(%rbp), %rax
	movb	$1, -62(%rbp)
	movq	%rax, -312(%rbp)
	cmpq	$0, -296(%rbp)
	je	LBB1_84
	jmp	LBB1_91
LBB1_26:
	movq	-288(%rbp), %rdi
Ltmp35:
	callq	__ZN50_$LT$T$u20$as$u20$core..convert..From$LT$T$GT$$GT$4from17h2b96e78849b074f1E
Ltmp36:
	movq	%rax, -464(%rbp)
	jmp	LBB1_27
LBB1_27:
Ltmp37:
	movq	-464(%rbp), %rdi
	callq	__ZN79_$LT$core..iter..LoopState$LT$C$C$$u20$B$GT$$u20$as$u20$core..ops..try..Try$GT$10from_error17h8a557dc81ddb616cE
Ltmp38:
	movq	%rdx, -472(%rbp)
	movq	%rax, -480(%rbp)
	jmp	LBB1_28
LBB1_28:
	movq	-480(%rbp), %rax
	movq	%rax, -328(%rbp)
	movq	-472(%rbp), %rcx
	movq	%rcx, -320(%rbp)
	cmpq	$0, -296(%rbp)
	je	LBB1_83
	jmp	LBB1_82
LBB1_29:
	movq	-328(%rbp), %rax
	movq	-320(%rbp), %rdx
	addq	$928, %rsp
	popq	%rbp
	retq
LBB1_30:
	jmp	LBB1_31
LBB1_31:
	movb	$0, -62(%rbp)
	jmp	LBB1_29
LBB1_32:
	movq	-488(%rbp), %rax
	movq	%rax, -216(%rbp)
	movq	-216(%rbp), %rcx
	movb	$0, -60(%rbp)
	movq	-224(%rbp), %rdx
	movq	%rdx, -240(%rbp)
	movq	%rcx, -232(%rbp)
	movq	-248(%rbp), %rdi
	movq	-240(%rbp), %rsi
	movq	-232(%rbp), %rdx
Ltmp46:
	callq	__ZN90_$LT$core..iter..TakeWhile$LT$I$C$$u20$P$GT$$u20$as$u20$core..iter..iterator..Iterator$GT$8try_fold28_$u7b$$u7b$closure$u7d$$u7d$17h583c070c73424346E
Ltmp47:
	movq	%rdx, -496(%rbp)
	movq	%rax, -504(%rbp)
	jmp	LBB1_34
LBB1_33:
	testb	$1, -60(%rbp)
	jne	LBB1_92
	jmp	LBB1_79
LBB1_34:
	movb	$0, -60(%rbp)
Ltmp49:
	movq	-504(%rbp), %rdi
	movq	-496(%rbp), %rsi
	callq	__ZN79_$LT$core..iter..LoopState$LT$C$C$$u20$B$GT$$u20$as$u20$core..ops..try..Try$GT$11into_result17h6c9172525577d170E
Ltmp50:
	movq	%rdx, -512(%rbp)
	movq	%rax, -520(%rbp)
	jmp	LBB1_35
LBB1_35:
	movq	-520(%rbp), %rax
	movq	%rax, -264(%rbp)
	movq	-512(%rbp), %rcx
	movq	%rcx, -256(%rbp)
	movq	-264(%rbp), %rdx
	testq	%rdx, %rdx
	movq	%rdx, -528(%rbp)
	je	LBB1_37
	jmp	LBB1_143
LBB1_143:
	movq	-528(%rbp), %rax
	subq	$1, %rax
	movq	%rax, -536(%rbp)
	je	LBB1_38
	jmp	LBB1_24
LBB1_36:
	cmpq	$0, -264(%rbp)
	je	LBB1_93
	jmp	LBB1_79
LBB1_37:
	movq	-256(%rbp), %rax
	movb	$1, -62(%rbp)
	movq	%rax, -312(%rbp)
	cmpq	$0, -264(%rbp)
	je	LBB1_96
	jmp	LBB1_103
LBB1_38:
	movq	-256(%rbp), %rdi
Ltmp51:
	callq	__ZN50_$LT$T$u20$as$u20$core..convert..From$LT$T$GT$$GT$4from17h2b96e78849b074f1E
Ltmp52:
	movq	%rax, -544(%rbp)
	jmp	LBB1_39
LBB1_39:
Ltmp53:
	movq	-544(%rbp), %rdi
	callq	__ZN79_$LT$core..iter..LoopState$LT$C$C$$u20$B$GT$$u20$as$u20$core..ops..try..Try$GT$10from_error17h8a557dc81ddb616cE
Ltmp54:
	movq	%rdx, -552(%rbp)
	movq	%rax, -560(%rbp)
	jmp	LBB1_40
LBB1_40:
	movq	-560(%rbp), %rax
	movq	%rax, -328(%rbp)
	movq	-552(%rbp), %rcx
	movq	%rcx, -320(%rbp)
	cmpq	$0, -264(%rbp)
	je	LBB1_95
	jmp	LBB1_94
LBB1_41:
	movq	-568(%rbp), %rax
	movq	%rax, -160(%rbp)
	movq	-160(%rbp), %rcx
	movb	$0, -59(%rbp)
	movq	-168(%rbp), %rdx
	movq	%rdx, -184(%rbp)
	movq	%rcx, -176(%rbp)
	movq	-192(%rbp), %rdi
	movq	-184(%rbp), %rsi
	movq	-176(%rbp), %rdx
Ltmp62:
	callq	__ZN90_$LT$core..iter..TakeWhile$LT$I$C$$u20$P$GT$$u20$as$u20$core..iter..iterator..Iterator$GT$8try_fold28_$u7b$$u7b$closure$u7d$$u7d$17h583c070c73424346E
Ltmp63:
	movq	%rdx, -576(%rbp)
	movq	%rax, -584(%rbp)
	jmp	LBB1_43
LBB1_42:
	testb	$1, -59(%rbp)
	jne	LBB1_104
	jmp	LBB1_79
LBB1_43:
	movb	$0, -59(%rbp)
Ltmp65:
	movq	-584(%rbp), %rdi
	movq	-576(%rbp), %rsi
	callq	__ZN79_$LT$core..iter..LoopState$LT$C$C$$u20$B$GT$$u20$as$u20$core..ops..try..Try$GT$11into_result17h6c9172525577d170E
Ltmp66:
	movq	%rdx, -592(%rbp)
	movq	%rax, -600(%rbp)
	jmp	LBB1_44
LBB1_44:
	movq	-600(%rbp), %rax
	movq	%rax, -208(%rbp)
	movq	-592(%rbp), %rcx
	movq	%rcx, -200(%rbp)
	movq	-208(%rbp), %rdx
	testq	%rdx, %rdx
	movq	%rdx, -608(%rbp)
	je	LBB1_46
	jmp	LBB1_144
LBB1_144:
	movq	-608(%rbp), %rax
	subq	$1, %rax
	movq	%rax, -616(%rbp)
	je	LBB1_47
	jmp	LBB1_24
LBB1_45:
	cmpq	$0, -208(%rbp)
	je	LBB1_105
	jmp	LBB1_79
LBB1_46:
	movq	-200(%rbp), %rax
	movb	$1, -62(%rbp)
	movq	%rax, -312(%rbp)
	cmpq	$0, -208(%rbp)
	je	LBB1_108
	jmp	LBB1_115
LBB1_47:
	movq	-200(%rbp), %rdi
Ltmp67:
	callq	__ZN50_$LT$T$u20$as$u20$core..convert..From$LT$T$GT$$GT$4from17h2b96e78849b074f1E
Ltmp68:
	movq	%rax, -624(%rbp)
	jmp	LBB1_48
LBB1_48:
Ltmp69:
	movq	-624(%rbp), %rdi
	callq	__ZN79_$LT$core..iter..LoopState$LT$C$C$$u20$B$GT$$u20$as$u20$core..ops..try..Try$GT$10from_error17h8a557dc81ddb616cE
Ltmp70:
	movq	%rdx, -632(%rbp)
	movq	%rax, -640(%rbp)
	jmp	LBB1_49
LBB1_49:
	movq	-640(%rbp), %rax
	movq	%rax, -328(%rbp)
	movq	-632(%rbp), %rcx
	movq	%rcx, -320(%rbp)
	cmpq	$0, -208(%rbp)
	je	LBB1_107
	jmp	LBB1_106
LBB1_50:
	movq	-648(%rbp), %rax
	movq	%rax, -104(%rbp)
	movq	-104(%rbp), %rcx
	movb	$0, -58(%rbp)
	movq	-112(%rbp), %rdx
	movq	%rdx, -128(%rbp)
	movq	%rcx, -120(%rbp)
	movq	-136(%rbp), %rdi
	movq	-128(%rbp), %rsi
	movq	-120(%rbp), %rdx
Ltmp78:
	callq	__ZN90_$LT$core..iter..TakeWhile$LT$I$C$$u20$P$GT$$u20$as$u20$core..iter..iterator..Iterator$GT$8try_fold28_$u7b$$u7b$closure$u7d$$u7d$17h583c070c73424346E
Ltmp79:
	movq	%rdx, -656(%rbp)
	movq	%rax, -664(%rbp)
	jmp	LBB1_52
LBB1_51:
	testb	$1, -58(%rbp)
	jne	LBB1_116
	jmp	LBB1_79
LBB1_52:
	movb	$0, -58(%rbp)
Ltmp81:
	movq	-664(%rbp), %rdi
	movq	-656(%rbp), %rsi
	callq	__ZN79_$LT$core..iter..LoopState$LT$C$C$$u20$B$GT$$u20$as$u20$core..ops..try..Try$GT$11into_result17h6c9172525577d170E
Ltmp82:
	movq	%rdx, -672(%rbp)
	movq	%rax, -680(%rbp)
	jmp	LBB1_53
LBB1_53:
	movq	-680(%rbp), %rax
	movq	%rax, -152(%rbp)
	movq	-672(%rbp), %rcx
	movq	%rcx, -144(%rbp)
	movq	-152(%rbp), %rdx
	testq	%rdx, %rdx
	movq	%rdx, -688(%rbp)
	je	LBB1_55
	jmp	LBB1_145
LBB1_145:
	movq	-688(%rbp), %rax
	subq	$1, %rax
	movq	%rax, -696(%rbp)
	je	LBB1_56
	jmp	LBB1_24
LBB1_54:
	cmpq	$0, -152(%rbp)
	je	LBB1_117
	jmp	LBB1_79
LBB1_55:
	movq	-144(%rbp), %rax
	movb	$1, -62(%rbp)
	movq	%rax, -312(%rbp)
	cmpq	$0, -152(%rbp)
	je	LBB1_120
	jmp	LBB1_121
LBB1_56:
	movq	-144(%rbp), %rdi
Ltmp84:
	callq	__ZN50_$LT$T$u20$as$u20$core..convert..From$LT$T$GT$$GT$4from17h2b96e78849b074f1E
Ltmp85:
	movq	%rax, -704(%rbp)
	jmp	LBB1_57
LBB1_57:
Ltmp86:
	movq	-704(%rbp), %rdi
	callq	__ZN79_$LT$core..iter..LoopState$LT$C$C$$u20$B$GT$$u20$as$u20$core..ops..try..Try$GT$10from_error17h8a557dc81ddb616cE
Ltmp87:
	movq	%rdx, -712(%rbp)
	movq	%rax, -720(%rbp)
	jmp	LBB1_58
LBB1_58:
	movq	-720(%rbp), %rax
	movq	%rax, -328(%rbp)
	movq	-712(%rbp), %rcx
	movq	%rcx, -320(%rbp)
	cmpq	$0, -152(%rbp)
	je	LBB1_119
	jmp	LBB1_118
LBB1_59:
	movq	-352(%rbp), %rax
	movq	(%rax), %rcx
	cmpq	8(%rax), %rcx
	sete	%dl
	xorb	$-1, %dl
	testb	$1, %dl
	jne	LBB1_61
	movb	$0, -62(%rbp)
	movq	-312(%rbp), %rdi
Ltmp6:
	callq	__ZN79_$LT$core..iter..LoopState$LT$C$C$$u20$B$GT$$u20$as$u20$core..ops..try..Try$GT$7from_ok17h7ba5e8f019d0cabbE
Ltmp7:
	movq	%rdx, -728(%rbp)
	movq	%rax, -736(%rbp)
	jmp	LBB1_77
LBB1_61:
	movb	$0, -62(%rbp)
	movb	$1, -57(%rbp)
	movq	-312(%rbp), %rax
Ltmp8:
	movq	%rax, -744(%rbp)
	callq	__ZN4core3mem7size_of17hc85f0091669efbbaE
Ltmp9:
	movq	%rax, -752(%rbp)
	jmp	LBB1_62
LBB1_62:
	movq	-752(%rbp), %rax
	cmpq	$0, %rax
	jne	LBB1_65
	movq	-352(%rbp), %rax
	movq	8(%rax), %rdi
Ltmp12:
	movq	$-1, %rsi
	callq	__ZN4core3ptr33_$LT$impl$u20$$BP$const$u20$T$GT$15wrapping_offset17h8f981aa157871fa6E
Ltmp13:
	movq	%rax, -760(%rbp)
	jmp	LBB1_64
LBB1_64:
	movq	-352(%rbp), %rax
	movq	-760(%rbp), %rcx
	movq	%rcx, 8(%rax)
	movq	(%rax), %rdx
	movq	%rdx, -32(%rbp)
	jmp	LBB1_67
LBB1_65:
	movq	-352(%rbp), %rax
	movq	8(%rax), %rdi
Ltmp10:
	movq	$-1, %rsi
	callq	__ZN4core3ptr33_$LT$impl$u20$$BP$const$u20$T$GT$6offset17hc56c58811b8e26d3E
Ltmp11:
	movq	%rax, -768(%rbp)
	jmp	LBB1_66
LBB1_66:
	movq	-352(%rbp), %rax
	movq	-768(%rbp), %rcx
	movq	%rcx, 8(%rax)
	movq	8(%rax), %rdx
	movq	%rdx, -32(%rbp)
LBB1_67:
	movq	-32(%rbp), %rax
	movq	%rax, -776(%rbp)
	movb	$0, -57(%rbp)
	movq	-744(%rbp), %rax
	movq	%rax, -80(%rbp)
	movq	-776(%rbp), %rcx
	movq	%rcx, -72(%rbp)
	movq	-80(%rbp), %rsi
	movq	-72(%rbp), %rdx
Ltmp14:
	leaq	-344(%rbp), %rdi
	callq	__ZN90_$LT$core..iter..TakeWhile$LT$I$C$$u20$P$GT$$u20$as$u20$core..iter..iterator..Iterator$GT$8try_fold28_$u7b$$u7b$closure$u7d$$u7d$17h583c070c73424346E
Ltmp15:
	movq	%rdx, -784(%rbp)
	movq	%rax, -792(%rbp)
	jmp	LBB1_70
LBB1_69:
	testb	$1, -57(%rbp)
	jne	LBB1_122
	jmp	LBB1_79
LBB1_70:
	movb	$0, -57(%rbp)
Ltmp17:
	movq	-792(%rbp), %rdi
	movq	-784(%rbp), %rsi
	callq	__ZN79_$LT$core..iter..LoopState$LT$C$C$$u20$B$GT$$u20$as$u20$core..ops..try..Try$GT$11into_result17h6c9172525577d170E
Ltmp18:
	movq	%rdx, -800(%rbp)
	movq	%rax, -808(%rbp)
	jmp	LBB1_71
LBB1_71:
	movq	-808(%rbp), %rax
	movq	%rax, -96(%rbp)
	movq	-800(%rbp), %rcx
	movq	%rcx, -88(%rbp)
	movq	-96(%rbp), %rdx
	testq	%rdx, %rdx
	movq	%rdx, -816(%rbp)
	je	LBB1_73
	jmp	LBB1_141
LBB1_141:
	movq	-816(%rbp), %rax
	subq	$1, %rax
	movq	%rax, -824(%rbp)
	je	LBB1_74
	jmp	LBB1_24
LBB1_72:
	cmpq	$0, -96(%rbp)
	je	LBB1_123
	jmp	LBB1_79
LBB1_73:
	movq	-88(%rbp), %rax
	movb	$1, -62(%rbp)
	movq	%rax, -312(%rbp)
	cmpq	$0, -96(%rbp)
	je	LBB1_126
	jmp	LBB1_127
LBB1_74:
	movq	-88(%rbp), %rdi
Ltmp19:
	callq	__ZN50_$LT$T$u20$as$u20$core..convert..From$LT$T$GT$$GT$4from17h2b96e78849b074f1E
Ltmp20:
	movq	%rax, -832(%rbp)
	jmp	LBB1_75
LBB1_75:
Ltmp21:
	movq	-832(%rbp), %rdi
	callq	__ZN79_$LT$core..iter..LoopState$LT$C$C$$u20$B$GT$$u20$as$u20$core..ops..try..Try$GT$10from_error17h8a557dc81ddb616cE
Ltmp22:
	movq	%rdx, -840(%rbp)
	movq	%rax, -848(%rbp)
	jmp	LBB1_76
LBB1_76:
	movq	-848(%rbp), %rax
	movq	%rax, -328(%rbp)
	movq	-840(%rbp), %rcx
	movq	%rcx, -320(%rbp)
	cmpq	$0, -96(%rbp)
	je	LBB1_125
	jmp	LBB1_124
LBB1_77:
	movq	-736(%rbp), %rax
	movq	%rax, -328(%rbp)
	movq	-728(%rbp), %rcx
	movq	%rcx, -320(%rbp)
	movb	$0, -62(%rbp)
	jmp	LBB1_29
LBB1_78:
	movb	$0, -62(%rbp)
	jmp	LBB1_6
LBB1_79:
	testb	$1, -62(%rbp)
	jne	LBB1_78
	jmp	LBB1_6
LBB1_80:
	movb	$0, -61(%rbp)
	jmp	LBB1_79
LBB1_81:
	jmp	LBB1_79
LBB1_82:
	jmp	LBB1_30
LBB1_83:
	jmp	LBB1_82
LBB1_84:
	leaq	-344(%rbp), %rax
	movq	%rax, -248(%rbp)
	movb	$0, -62(%rbp)
	movb	$1, -60(%rbp)
	movq	-312(%rbp), %rax
	movq	%rax, -224(%rbp)
Ltmp40:
	callq	__ZN4core3mem7size_of17hc85f0091669efbbaE
Ltmp41:
	movq	%rax, -856(%rbp)
	jmp	LBB1_85
LBB1_85:
	movq	-856(%rbp), %rax
	cmpq	$0, %rax
	jne	LBB1_88
	movq	-352(%rbp), %rax
	movq	8(%rax), %rdi
Ltmp44:
	movq	$-1, %rsi
	callq	__ZN4core3ptr33_$LT$impl$u20$$BP$const$u20$T$GT$15wrapping_offset17h8f981aa157871fa6E
Ltmp45:
	movq	%rax, -864(%rbp)
	jmp	LBB1_87
LBB1_87:
	movq	-352(%rbp), %rax
	movq	-864(%rbp), %rcx
	movq	%rcx, 8(%rax)
	movq	(%rax), %rdx
	movq	%rdx, -24(%rbp)
	jmp	LBB1_90
LBB1_88:
	movq	-352(%rbp), %rax
	movq	8(%rax), %rdi
Ltmp42:
	movq	$-1, %rsi
	callq	__ZN4core3ptr33_$LT$impl$u20$$BP$const$u20$T$GT$6offset17hc56c58811b8e26d3E
Ltmp43:
	movq	%rax, -872(%rbp)
	jmp	LBB1_89
LBB1_89:
	movq	-352(%rbp), %rax
	movq	-872(%rbp), %rcx
	movq	%rcx, 8(%rax)
	movq	8(%rax), %rdx
	movq	%rdx, -24(%rbp)
LBB1_90:
	movq	-24(%rbp), %rax
	movq	%rax, -488(%rbp)
	jmp	LBB1_32
LBB1_91:
	jmp	LBB1_84
LBB1_92:
	movb	$0, -60(%rbp)
	jmp	LBB1_79
LBB1_93:
	jmp	LBB1_79
LBB1_94:
	jmp	LBB1_30
LBB1_95:
	jmp	LBB1_94
LBB1_96:
	leaq	-344(%rbp), %rax
	movq	%rax, -192(%rbp)
	movb	$0, -62(%rbp)
	movb	$1, -59(%rbp)
	movq	-312(%rbp), %rax
	movq	%rax, -168(%rbp)
Ltmp56:
	callq	__ZN4core3mem7size_of17hc85f0091669efbbaE
Ltmp57:
	movq	%rax, -880(%rbp)
	jmp	LBB1_97
LBB1_97:
	movq	-880(%rbp), %rax
	cmpq	$0, %rax
	jne	LBB1_100
	movq	-352(%rbp), %rax
	movq	8(%rax), %rdi
Ltmp60:
	movq	$-1, %rsi
	callq	__ZN4core3ptr33_$LT$impl$u20$$BP$const$u20$T$GT$15wrapping_offset17h8f981aa157871fa6E
Ltmp61:
	movq	%rax, -888(%rbp)
	jmp	LBB1_99
LBB1_99:
	movq	-352(%rbp), %rax
	movq	-888(%rbp), %rcx
	movq	%rcx, 8(%rax)
	movq	(%rax), %rdx
	movq	%rdx, -16(%rbp)
	jmp	LBB1_102
LBB1_100:
	movq	-352(%rbp), %rax
	movq	8(%rax), %rdi
Ltmp58:
	movq	$-1, %rsi
	callq	__ZN4core3ptr33_$LT$impl$u20$$BP$const$u20$T$GT$6offset17hc56c58811b8e26d3E
Ltmp59:
	movq	%rax, -896(%rbp)
	jmp	LBB1_101
LBB1_101:
	movq	-352(%rbp), %rax
	movq	-896(%rbp), %rcx
	movq	%rcx, 8(%rax)
	movq	8(%rax), %rdx
	movq	%rdx, -16(%rbp)
LBB1_102:
	movq	-16(%rbp), %rax
	movq	%rax, -568(%rbp)
	jmp	LBB1_41
LBB1_103:
	jmp	LBB1_96
LBB1_104:
	movb	$0, -59(%rbp)
	jmp	LBB1_79
LBB1_105:
	jmp	LBB1_79
LBB1_106:
	jmp	LBB1_30
LBB1_107:
	jmp	LBB1_106
LBB1_108:
	leaq	-344(%rbp), %rax
	movq	%rax, -136(%rbp)
	movb	$0, -62(%rbp)
	movb	$1, -58(%rbp)
	movq	-312(%rbp), %rax
	movq	%rax, -112(%rbp)
Ltmp72:
	callq	__ZN4core3mem7size_of17hc85f0091669efbbaE
Ltmp73:
	movq	%rax, -904(%rbp)
	jmp	LBB1_109
LBB1_109:
	movq	-904(%rbp), %rax
	cmpq	$0, %rax
	jne	LBB1_112
	movq	-352(%rbp), %rax
	movq	8(%rax), %rdi
Ltmp76:
	movq	$-1, %rsi
	callq	__ZN4core3ptr33_$LT$impl$u20$$BP$const$u20$T$GT$15wrapping_offset17h8f981aa157871fa6E
Ltmp77:
	movq	%rax, -912(%rbp)
	jmp	LBB1_111
LBB1_111:
	movq	-352(%rbp), %rax
	movq	-912(%rbp), %rcx
	movq	%rcx, 8(%rax)
	movq	(%rax), %rdx
	movq	%rdx, -8(%rbp)
	jmp	LBB1_114
LBB1_112:
	movq	-352(%rbp), %rax
	movq	8(%rax), %rdi
Ltmp74:
	movq	$-1, %rsi
	callq	__ZN4core3ptr33_$LT$impl$u20$$BP$const$u20$T$GT$6offset17hc56c58811b8e26d3E
Ltmp75:
	movq	%rax, -920(%rbp)
	jmp	LBB1_113
LBB1_113:
	movq	-352(%rbp), %rax
	movq	-920(%rbp), %rcx
	movq	%rcx, 8(%rax)
	movq	8(%rax), %rdx
	movq	%rdx, -8(%rbp)
LBB1_114:
	movq	-8(%rbp), %rax
	movq	%rax, -648(%rbp)
	jmp	LBB1_50
LBB1_115:
	jmp	LBB1_108
LBB1_116:
	movb	$0, -58(%rbp)
	jmp	LBB1_79
LBB1_117:
	jmp	LBB1_79
LBB1_118:
	jmp	LBB1_30
LBB1_119:
	jmp	LBB1_118
LBB1_120:
	jmp	LBB1_1
LBB1_121:
	jmp	LBB1_120
LBB1_122:
	movb	$0, -57(%rbp)
	jmp	LBB1_79
LBB1_123:
	jmp	LBB1_79
LBB1_124:
	jmp	LBB1_31
LBB1_125:
	jmp	LBB1_124
LBB1_126:
	jmp	LBB1_59
LBB1_127:
	jmp	LBB1_126
LBB1_128:
Ltmp83:
	movl	%edx, %ecx
	movq	%rax, -56(%rbp)
	movl	%ecx, -48(%rbp)
	jmp	LBB1_79
LBB1_129:
Ltmp4:
	leaq	l___unnamed_1(%rip), %rdi
	callq	__ZN4core9panicking5panic17h9e14359664dfef5fE
Ltmp5:
	jmp	LBB1_130
LBB1_130:
	ud2
LBB1_131:
Ltmp32:
	movl	%edx, %ecx
	movq	%rax, -56(%rbp)
	movl	%ecx, -48(%rbp)
	jmp	LBB1_20
LBB1_132:
Ltmp39:
	movl	%edx, %ecx
	movq	%rax, -56(%rbp)
	movl	%ecx, -48(%rbp)
	jmp	LBB1_23
LBB1_133:
Ltmp48:
	movl	%edx, %ecx
	movq	%rax, -56(%rbp)
	movl	%ecx, -48(%rbp)
	jmp	LBB1_33
LBB1_134:
Ltmp55:
	movl	%edx, %ecx
	movq	%rax, -56(%rbp)
	movl	%ecx, -48(%rbp)
	jmp	LBB1_36
LBB1_135:
Ltmp64:
	movl	%edx, %ecx
	movq	%rax, -56(%rbp)
	movl	%ecx, -48(%rbp)
	jmp	LBB1_42
LBB1_136:
Ltmp71:
	movl	%edx, %ecx
	movq	%rax, -56(%rbp)
	movl	%ecx, -48(%rbp)
	jmp	LBB1_45
LBB1_137:
Ltmp80:
	movl	%edx, %ecx
	movq	%rax, -56(%rbp)
	movl	%ecx, -48(%rbp)
	jmp	LBB1_51
LBB1_138:
Ltmp88:
	movl	%edx, %ecx
	movq	%rax, -56(%rbp)
	movl	%ecx, -48(%rbp)
	jmp	LBB1_54
LBB1_139:
Ltmp16:
	movl	%edx, %ecx
	movq	%rax, -56(%rbp)
	movl	%ecx, -48(%rbp)
	jmp	LBB1_69
LBB1_140:
Ltmp23:
	movl	%edx, %ecx
	movq	%rax, -56(%rbp)
	movl	%ecx, -48(%rbp)
	jmp	LBB1_72
Lfunc_end0:
	.cfi_endproc
	.section	__TEXT,__gcc_except_tab
	.p2align	2
GCC_except_table1:
Lexception0:
	.byte	255
	.byte	255
	.byte	1
	.uleb128 Lcst_end0-Lcst_begin0
Lcst_begin0:
	.uleb128 Ltmp0-Lfunc_begin0
	.uleb128 Ltmp3-Ltmp0
	.uleb128 Ltmp83-Lfunc_begin0
	.byte	0
	.uleb128 Ltmp3-Lfunc_begin0
	.uleb128 Ltmp24-Ltmp3
	.byte	0
	.byte	0
	.uleb128 Ltmp24-Lfunc_begin0
	.uleb128 Ltmp31-Ltmp24
	.uleb128 Ltmp32-Lfunc_begin0
	.byte	0
	.uleb128 Ltmp33-Lfunc_begin0
	.uleb128 Ltmp34-Ltmp33
	.uleb128 Ltmp83-Lfunc_begin0
	.byte	0
	.uleb128 Ltmp35-Lfunc_begin0
	.uleb128 Ltmp38-Ltmp35
	.uleb128 Ltmp39-Lfunc_begin0
	.byte	0
	.uleb128 Ltmp46-Lfunc_begin0
	.uleb128 Ltmp47-Ltmp46
	.uleb128 Ltmp48-Lfunc_begin0
	.byte	0
	.uleb128 Ltmp49-Lfunc_begin0
	.uleb128 Ltmp50-Ltmp49
	.uleb128 Ltmp83-Lfunc_begin0
	.byte	0
	.uleb128 Ltmp51-Lfunc_begin0
	.uleb128 Ltmp54-Ltmp51
	.uleb128 Ltmp55-Lfunc_begin0
	.byte	0
	.uleb128 Ltmp62-Lfunc_begin0
	.uleb128 Ltmp63-Ltmp62
	.uleb128 Ltmp64-Lfunc_begin0
	.byte	0
	.uleb128 Ltmp65-Lfunc_begin0
	.uleb128 Ltmp66-Ltmp65
	.uleb128 Ltmp83-Lfunc_begin0
	.byte	0
	.uleb128 Ltmp67-Lfunc_begin0
	.uleb128 Ltmp70-Ltmp67
	.uleb128 Ltmp71-Lfunc_begin0
	.byte	0
	.uleb128 Ltmp78-Lfunc_begin0
	.uleb128 Ltmp79-Ltmp78
	.uleb128 Ltmp80-Lfunc_begin0
	.byte	0
	.uleb128 Ltmp81-Lfunc_begin0
	.uleb128 Ltmp82-Ltmp81
	.uleb128 Ltmp83-Lfunc_begin0
	.byte	0
	.uleb128 Ltmp84-Lfunc_begin0
	.uleb128 Ltmp87-Ltmp84
	.uleb128 Ltmp88-Lfunc_begin0
	.byte	0
	.uleb128 Ltmp6-Lfunc_begin0
	.uleb128 Ltmp7-Ltmp6
	.uleb128 Ltmp83-Lfunc_begin0
	.byte	0
	.uleb128 Ltmp8-Lfunc_begin0
	.uleb128 Ltmp15-Ltmp8
	.uleb128 Ltmp16-Lfunc_begin0
	.byte	0
	.uleb128 Ltmp17-Lfunc_begin0
	.uleb128 Ltmp18-Ltmp17
	.uleb128 Ltmp83-Lfunc_begin0
	.byte	0
	.uleb128 Ltmp19-Lfunc_begin0
	.uleb128 Ltmp22-Ltmp19
	.uleb128 Ltmp23-Lfunc_begin0
	.byte	0
	.uleb128 Ltmp40-Lfunc_begin0
	.uleb128 Ltmp43-Ltmp40
	.uleb128 Ltmp48-Lfunc_begin0
	.byte	0
	.uleb128 Ltmp56-Lfunc_begin0
	.uleb128 Ltmp59-Ltmp56
	.uleb128 Ltmp64-Lfunc_begin0
	.byte	0
	.uleb128 Ltmp72-Lfunc_begin0
	.uleb128 Ltmp75-Ltmp72
	.uleb128 Ltmp80-Lfunc_begin0
	.byte	0
	.uleb128 Ltmp4-Lfunc_begin0
	.uleb128 Ltmp5-Ltmp4
	.uleb128 Ltmp83-Lfunc_begin0
	.byte	0
Lcst_end0:
	.p2align	2

	.section	__TEXT,__text,regular,pure_instructions
	.p2align	4, 0x90
__ZN101_$LT$core..ops..range..RangeTo$LT$usize$GT$$u20$as$u20$core..slice..SliceIndex$LT$$u5b$T$u5d$$GT$$GT$5index17hc144604de5d7a952E:
	.cfi_startproc
	pushq	%rbp
	.cfi_def_cfa_offset 16
	.cfi_offset %rbp, -16
	movq	%rsp, %rbp
	.cfi_def_cfa_register %rbp
	subq	$48, %rsp
	movq	$0, -16(%rbp)
	movq	%rdi, -8(%rbp)
	movq	-16(%rbp), %rdi
	movq	-8(%rbp), %rax
	movq	%rsi, -24(%rbp)
	movq	%rax, %rsi
	movq	-24(%rbp), %rax
	movq	%rdx, -32(%rbp)
	movq	%rax, %rdx
	movq	-32(%rbp), %rcx
	callq	__ZN99_$LT$core..ops..range..Range$LT$usize$GT$$u20$as$u20$core..slice..SliceIndex$LT$$u5b$T$u5d$$GT$$GT$5index17h4f32eec58d4e2ebfE
	movq	%rax, -40(%rbp)
	movq	%rdx, -48(%rbp)
	movq	-40(%rbp), %rax
	movq	-48(%rbp), %rdx
	addq	$48, %rsp
	popq	%rbp
	retq
	.cfi_endproc

	.p2align	4, 0x90
__ZN101_$LT$core..ptr..NonNull$LT$T$GT$$u20$as$u20$core..convert..From$LT$core..ptr..Unique$LT$T$GT$$GT$$GT$4from17h8b93a8fae7ccb5b5E:
	.cfi_startproc
	pushq	%rbp
	.cfi_def_cfa_offset 16
	.cfi_offset %rbp, -16
	movq	%rsp, %rbp
	.cfi_def_cfa_register %rbp
	pushq	%rax
	movq	%rdi, -8(%rbp)
	movq	-8(%rbp), %rax
	addq	$8, %rsp
	popq	%rbp
	retq
	.cfi_endproc

	.p2align	4, 0x90
__ZN101_$LT$core..ptr..NonNull$LT$T$GT$$u20$as$u20$core..convert..From$LT$core..ptr..Unique$LT$T$GT$$GT$$GT$4from17hffa6361fb8979c9fE:
	.cfi_startproc
	pushq	%rbp
	.cfi_def_cfa_offset 16
	.cfi_offset %rbp, -16
	movq	%rsp, %rbp
	.cfi_def_cfa_register %rbp
	pushq	%rax
	movq	%rdi, -8(%rbp)
	movq	-8(%rbp), %rax
	addq	$8, %rsp
	popq	%rbp
	retq
	.cfi_endproc

	.p2align	4, 0x90
__ZN101_$LT$core..ptr..Unique$LT$T$GT$$u20$as$u20$core..convert..From$LT$core..ptr..NonNull$LT$T$GT$$GT$$GT$4from17h4fde4ab04c60ff2fE:
	.cfi_startproc
	pushq	%rbp
	.cfi_def_cfa_offset 16
	.cfi_offset %rbp, -16
	movq	%rsp, %rbp
	.cfi_def_cfa_register %rbp
	subq	$16, %rsp
	movq	%rdi, -16(%rbp)
	movq	-16(%rbp), %rax
	addq	$16, %rsp
	popq	%rbp
	retq
	.cfi_endproc

	.p2align	4, 0x90
__ZN101_$LT$core..ptr..Unique$LT$T$GT$$u20$as$u20$core..convert..From$LT$core..ptr..NonNull$LT$T$GT$$GT$$GT$4from17hc6a602799075db60E:
	.cfi_startproc
	pushq	%rbp
	.cfi_def_cfa_offset 16
	.cfi_offset %rbp, -16
	movq	%rsp, %rbp
	.cfi_def_cfa_register %rbp
	subq	$16, %rsp
	movq	%rdi, -16(%rbp)
	movq	-16(%rbp), %rax
	addq	$16, %rsp
	popq	%rbp
	retq
	.cfi_endproc

	.p2align	4, 0x90
__ZN103_$LT$core..ops..range..RangeFrom$LT$usize$GT$$u20$as$u20$core..slice..SliceIndex$LT$$u5b$T$u5d$$GT$$GT$17get_unchecked_mut17hf53dbd6d058c01f6E:
	.cfi_startproc
	pushq	%rbp
	.cfi_def_cfa_offset 16
	.cfi_offset %rbp, -16
	movq	%rsp, %rbp
	.cfi_def_cfa_register %rbp
	subq	$64, %rsp
	movq	%rdi, -24(%rbp)
	movq	%rsi, %rdi
	movq	%rsi, -32(%rbp)
	movq	%rdx, %rsi
	movq	%rdx, -40(%rbp)
	callq	__ZN4core5slice29_$LT$impl$u20$$u5b$T$u5d$$GT$3len17h24a66b66aa57f6d3E
	movq	%rax, -48(%rbp)
	movq	-24(%rbp), %rax
	movq	%rax, -16(%rbp)
	movq	-48(%rbp), %rcx
	movq	%rcx, -8(%rbp)
	movq	-16(%rbp), %rdi
	movq	-8(%rbp), %rsi
	movq	-32(%rbp), %rdx
	movq	-40(%rbp), %rcx
	callq	__ZN99_$LT$core..ops..range..Range$LT$usize$GT$$u20$as$u20$core..slice..SliceIndex$LT$$u5b$T$u5d$$GT$$GT$17get_unchecked_mut17h65a33fe478f62e2bE
	movq	%rax, -56(%rbp)
	movq	%rdx, -64(%rbp)
	movq	-56(%rbp), %rax
	movq	-64(%rbp), %rdx
	addq	$64, %rsp
	popq	%rbp
	retq
	.cfi_endproc

	.p2align	4, 0x90
__ZN103_$LT$core..ops..range..RangeFrom$LT$usize$GT$$u20$as$u20$core..slice..SliceIndex$LT$$u5b$T$u5d$$GT$$GT$5index17h876385f29082bdefE:
	.cfi_startproc
	pushq	%rbp
	.cfi_def_cfa_offset 16
	.cfi_offset %rbp, -16
	movq	%rsp, %rbp
	.cfi_def_cfa_register %rbp
	subq	$64, %rsp
	movq	%rdi, -24(%rbp)
	movq	%rsi, %rdi
	movq	%rsi, -32(%rbp)
	movq	%rdx, %rsi
	movq	%rdx, -40(%rbp)
	callq	__ZN4core5slice29_$LT$impl$u20$$u5b$T$u5d$$GT$3len17h24a66b66aa57f6d3E
	movq	%rax, -48(%rbp)
	movq	-24(%rbp), %rax
	movq	%rax, -16(%rbp)
	movq	-48(%rbp), %rcx
	movq	%rcx, -8(%rbp)
	movq	-16(%rbp), %rdi
	movq	-8(%rbp), %rsi
	movq	-32(%rbp), %rdx
	movq	-40(%rbp), %rcx
	callq	__ZN99_$LT$core..ops..range..Range$LT$usize$GT$$u20$as$u20$core..slice..SliceIndex$LT$$u5b$T$u5d$$GT$$GT$5index17h4f32eec58d4e2ebfE
	movq	%rax, -56(%rbp)
	movq	%rdx, -64(%rbp)
	movq	-56(%rbp), %rax
	movq	-64(%rbp), %rdx
	addq	$64, %rsp
	popq	%rbp
	retq
	.cfi_endproc

	.p2align	4, 0x90
__ZN107_$LT$alloc..collections..CollectionAllocErr$u20$as$u20$core..convert..From$LT$core..alloc..AllocErr$GT$$GT$4from17hd9ae46c45f817fceE:
	.cfi_startproc
	pushq	%rbp
	.cfi_def_cfa_offset 16
	.cfi_offset %rbp, -16
	movq	%rsp, %rbp
	.cfi_def_cfa_register %rbp
	subq	$1, %rsp
	movb	$1, -1(%rbp)
	movb	-1(%rbp), %al
	andb	$1, %al
	movzbl	%al, %eax
	addq	$1, %rsp
	popq	%rbp
	retq
	.cfi_endproc

	.p2align	4, 0x90
__ZN109_$LT$core..str..pattern..MultiCharEqPattern$LT$C$GT$$u20$as$u20$core..str..pattern..Pattern$LT$$u27$a$GT$$GT$13into_searcher17h1e21593a92b564a0E:
Lfunc_begin1:
	.cfi_startproc
	.cfi_personality 155, _rust_eh_personality
	.cfi_lsda 16, Lexception1
	pushq	%rbp
	.cfi_def_cfa_offset 16
	.cfi_offset %rbp, -16
	movq	%rsp, %rbp
	.cfi_def_cfa_register %rbp
	subq	$80, %rsp
	movq	%rdi, %rax
Ltmp89:
	leaq	-40(%rbp), %rcx
	movq	%rdi, -48(%rbp)
	movq	%rcx, %rdi
	movq	%rsi, -56(%rbp)
	movq	%rdx, -64(%rbp)
	movq	%rax, -72(%rbp)
	callq	__ZN4core3str21_$LT$impl$u20$str$GT$12char_indices17h37ef7a00deb498b9E
Ltmp90:
	jmp	LBB10_1
LBB10_1:
	movq	-48(%rbp), %rax
	movq	-56(%rbp), %rcx
	movq	%rcx, (%rax)
	movq	-64(%rbp), %rdx
	movq	%rdx, 8(%rax)
	movq	-40(%rbp), %rsi
	movq	%rsi, 16(%rax)
	movq	-32(%rbp), %rsi
	movq	%rsi, 24(%rax)
	movq	-24(%rbp), %rsi
	movq	%rsi, 32(%rax)
	movq	-72(%rbp), %rax
	addq	$80, %rsp
	popq	%rbp
	retq
LBB10_2:
	movq	-16(%rbp), %rdi
	callq	__Unwind_Resume
	ud2
LBB10_3:
	jmp	LBB10_2
LBB10_4:
Ltmp91:
	movl	%edx, %ecx
	movq	%rax, -16(%rbp)
	movl	%ecx, -8(%rbp)
	jmp	LBB10_3
Lfunc_end1:
	.cfi_endproc
	.section	__TEXT,__gcc_except_tab
	.p2align	2
GCC_except_table10:
Lexception1:
	.byte	255
	.byte	255
	.byte	1
	.uleb128 Lcst_end1-Lcst_begin1
Lcst_begin1:
	.uleb128 Ltmp89-Lfunc_begin1
	.uleb128 Ltmp90-Ltmp89
	.uleb128 Ltmp91-Lfunc_begin1
	.byte	0
	.uleb128 Ltmp90-Lfunc_begin1
	.uleb128 Lfunc_end1-Ltmp90
	.byte	0
	.byte	0
Lcst_end1:
	.p2align	2

	.section	__TEXT,__text,regular,pure_instructions
	.p2align	4, 0x90
__ZN120_$LT$core..str..IsNotEmpty$u20$as$u20$core..ops..function..FnMut$LT$$LP$$RF$$u27$a$u20$$RF$$u27$b$u20$str$C$$RP$$GT$$GT$8call_mut17h7d4b0d8bbb60b5a5E:
	.cfi_startproc
	pushq	%rbp
	.cfi_def_cfa_offset 16
	.cfi_offset %rbp, -16
	movq	%rsp, %rbp
	.cfi_def_cfa_register %rbp
	subq	$32, %rsp
	movq	%rsi, -8(%rbp)
	movq	-8(%rbp), %rsi
	movq	(%rsi), %rax
	movq	8(%rsi), %rsi
	movq	%rdi, -16(%rbp)
	movq	%rax, %rdi
	callq	__ZN4core3str21_$LT$impl$u20$str$GT$8is_empty17hf92e48a02e8352daE
	movb	%al, -17(%rbp)
	movb	-17(%rbp), %al
	xorb	$-1, %al
	andb	$1, %al
	movzbl	%al, %eax
	addq	$32, %rsp
	popq	%rbp
	retq
	.cfi_endproc

	.p2align	4, 0x90
__ZN125_$LT$core..str..pattern..MultiCharEqSearcher$LT$$u27$a$C$$u20$C$GT$$u20$as$u20$core..str..pattern..Searcher$LT$$u27$a$GT$$GT$4next17h619b4063d59800c8E:
	.cfi_startproc
	pushq	%rbp
	.cfi_def_cfa_offset 16
	.cfi_offset %rbp, -16
	movq	%rsp, %rbp
	.cfi_def_cfa_register %rbp
	subq	$144, %rsp
	movq	%rdi, %rax
	movq	%rsi, %rcx
	addq	$16, %rcx
	movq	24(%rsi), %rdx
	movq	32(%rsi), %r8
	movq	%rdi, -40(%rbp)
	movq	%r8, %rdi
	movq	%rsi, -48(%rbp)
	movq	%rdx, %rsi
	movq	%rax, -56(%rbp)
	movq	%rcx, -64(%rbp)
	callq	__ZN4core3num23_$LT$impl$u20$usize$GT$12wrapping_sub17h678b23997a3005c9E
	movq	%rax, -72(%rbp)
	callq	__ZN4core3mem7size_of17hc85f0091669efbbaE
	cmpq	$0, %rax
	movq	%rax, -80(%rbp)
	jne	LBB12_2
	movq	-72(%rbp), %rax
	movq	%rax, -16(%rbp)
	jmp	LBB12_5
LBB12_2:
	movq	-80(%rbp), %rax
	cmpq	$0, %rax
	sete	%cl
	testb	$1, %cl
	jne	LBB12_4
	movq	-72(%rbp), %rax
	xorl	%ecx, %ecx
	movl	%ecx, %edx
	movq	-80(%rbp), %rsi
	divq	%rsi
	movq	%rax, -16(%rbp)
	jmp	LBB12_5
LBB12_4:
	leaq	l___unnamed_1(%rip), %rdi
	callq	__ZN4core9panicking5panic17h9e14359664dfef5fE
LBB12_5:
	movq	-16(%rbp), %rax
	movq	%rax, -88(%rbp)
	movq	-64(%rbp), %rdi
	callq	__ZN87_$LT$core..str..CharIndices$LT$$u27$a$GT$$u20$as$u20$core..iter..iterator..Iterator$GT$4next17h0e4df5d034066048E
	movl	%edx, -24(%rbp)
	movq	%rax, -32(%rbp)
	movl	$1, %eax
	movl	%eax, %ecx
	xorl	%eax, %eax
	movl	%eax, %edx
	cmpl	$1114112, -24(%rbp)
	cmoveq	%rdx, %rcx
	cmpq	$1, %rcx
	je	LBB12_9
	movq	-40(%rbp), %rax
	movq	$2, (%rax)
	jmp	LBB12_19
LBB12_9:
	movq	-32(%rbp), %rax
	movl	-24(%rbp), %esi
	movq	-64(%rbp), %rcx
	movq	8(%rcx), %rdx
	movq	16(%rcx), %rdi
	movl	%esi, -92(%rbp)
	movq	%rdx, %rsi
	movq	%rax, -104(%rbp)
	callq	__ZN4core3num23_$LT$impl$u20$usize$GT$12wrapping_sub17h678b23997a3005c9E
	movq	%rax, -112(%rbp)
	callq	__ZN4core3mem7size_of17hc85f0091669efbbaE
	cmpq	$0, %rax
	movq	%rax, -120(%rbp)
	jne	LBB12_11
	movq	-112(%rbp), %rax
	movq	%rax, -8(%rbp)
	jmp	LBB12_14
LBB12_11:
	movq	-120(%rbp), %rax
	cmpq	$0, %rax
	sete	%cl
	testb	$1, %cl
	jne	LBB12_13
	movq	-112(%rbp), %rax
	xorl	%ecx, %ecx
	movl	%ecx, %edx
	movq	-120(%rbp), %rsi
	divq	%rsi
	movq	%rax, -8(%rbp)
	jmp	LBB12_14
LBB12_13:
	leaq	l___unnamed_1(%rip), %rdi
	callq	__ZN4core9panicking5panic17h9e14359664dfef5fE
LBB12_14:
	movq	-8(%rbp), %rax
	movq	%rax, -128(%rbp)
	movq	-88(%rbp), %rax
	movq	-128(%rbp), %rcx
	subq	%rcx, %rax
	movq	-48(%rbp), %rdx
	movq	%rdx, %rdi
	movl	-92(%rbp), %esi
	movq	%rax, -136(%rbp)
	callq	__ZN53_$LT$F$u20$as$u20$core..str..pattern..MultiCharEq$GT$7matches17h07332a712fe98ab2E
	movb	%al, -137(%rbp)
	movb	-137(%rbp), %al
	testb	$1, %al
	jne	LBB12_17
	jmp	LBB12_18
LBB12_17:
	movq	-104(%rbp), %rax
	movq	-136(%rbp), %rcx
	addq	%rcx, %rax
	movq	-40(%rbp), %rdx
	movq	-104(%rbp), %rsi
	movq	%rsi, 8(%rdx)
	movq	%rax, 16(%rdx)
	movq	$0, (%rdx)
	jmp	LBB12_20
LBB12_18:
	movq	-104(%rbp), %rax
	movq	-136(%rbp), %rcx
	addq	%rcx, %rax
	movq	-40(%rbp), %rdx
	movq	-104(%rbp), %rsi
	movq	%rsi, 8(%rdx)
	movq	%rax, 16(%rdx)
	movq	$1, (%rdx)
	jmp	LBB12_20
LBB12_19:
	movq	-56(%rbp), %rax
	addq	$144, %rsp
	popq	%rbp
	retq
LBB12_20:
	jmp	LBB12_19
	.cfi_endproc

	.p2align	4, 0x90
__ZN125_$LT$core..str..pattern..MultiCharEqSearcher$LT$$u27$a$C$$u20$C$GT$$u20$as$u20$core..str..pattern..Searcher$LT$$u27$a$GT$$GT$8haystack17h7d61cdca3719ed41E:
	.cfi_startproc
	pushq	%rbp
	.cfi_def_cfa_offset 16
	.cfi_offset %rbp, -16
	movq	%rsp, %rbp
	.cfi_def_cfa_register %rbp
	movq	(%rdi), %rax
	movq	8(%rdi), %rdx
	popq	%rbp
	retq
	.cfi_endproc

	.p2align	4, 0x90
__ZN127_$LT$core..str..pattern..CharPredicateSearcher$LT$$u27$a$C$$u20$F$GT$$u20$as$u20$core..str..pattern..Searcher$LT$$u27$a$GT$$GT$10next_match17hfae6e63bd7e0dc7dE:
	.cfi_startproc
	pushq	%rbp
	.cfi_def_cfa_offset 16
	.cfi_offset %rbp, -16
	movq	%rsp, %rbp
	.cfi_def_cfa_register %rbp
	subq	$16, %rsp
	movq	%rdi, %rax
	movq	%rax, -8(%rbp)
	callq	__ZN4core3str7pattern8Searcher10next_match17h2d7035d93f5d33dcE
	movq	-8(%rbp), %rax
	addq	$16, %rsp
	popq	%rbp
	retq
	.cfi_endproc

	.p2align	4, 0x90
__ZN127_$LT$core..str..pattern..CharPredicateSearcher$LT$$u27$a$C$$u20$F$GT$$u20$as$u20$core..str..pattern..Searcher$LT$$u27$a$GT$$GT$8haystack17haaf23548d4766214E:
	.cfi_startproc
	pushq	%rbp
	.cfi_def_cfa_offset 16
	.cfi_offset %rbp, -16
	movq	%rsp, %rbp
	.cfi_def_cfa_register %rbp
	subq	$16, %rsp
	callq	__ZN125_$LT$core..str..pattern..MultiCharEqSearcher$LT$$u27$a$C$$u20$C$GT$$u20$as$u20$core..str..pattern..Searcher$LT$$u27$a$GT$$GT$8haystack17h7d61cdca3719ed41E
	movq	%rax, -8(%rbp)
	movq	%rdx, -16(%rbp)
	movq	-8(%rbp), %rax
	movq	-16(%rbp), %rdx
	addq	$16, %rsp
	popq	%rbp
	retq
	.cfi_endproc

	.p2align	4, 0x90
__ZN139_$LT$alloc..vec..Vec$LT$T$GT$$u20$as$u20$alloc..vec..SpecExtend$LT$$RF$$u27$a$u20$T$C$$u20$core..slice..Iter$LT$$u27$a$C$$u20$T$GT$$GT$$GT$11spec_extend17hbfaa7f8262ac6f97E:
	.cfi_startproc
	pushq	%rbp
	.cfi_def_cfa_offset 16
	.cfi_offset %rbp, -16
	movq	%rsp, %rbp
	.cfi_def_cfa_register %rbp
	subq	$112, %rsp
	movq	%rsi, -24(%rbp)
	movq	%rdx, -16(%rbp)
	leaq	-24(%rbp), %rdx
	movq	%rdi, -32(%rbp)
	movq	%rdx, %rdi
	callq	__ZN49_$LT$core..slice..Iter$LT$$u27$a$C$$u20$T$GT$$GT$8as_slice17h4013a8e07ba2d8a0E
	movq	%rax, -40(%rbp)
	movq	%rdx, -48(%rbp)
	movq	-40(%rbp), %rdi
	movq	-48(%rbp), %rsi
	callq	__ZN4core5slice29_$LT$impl$u20$$u5b$T$u5d$$GT$3len17h24a66b66aa57f6d3E
	movq	%rax, -56(%rbp)
	movq	-32(%rbp), %rdi
	movq	-56(%rbp), %rsi
	callq	__ZN33_$LT$alloc..vec..Vec$LT$T$GT$$GT$7reserve17hd4320088b436a7ebE
	movq	-32(%rbp), %rdi
	callq	__ZN33_$LT$alloc..vec..Vec$LT$T$GT$$GT$3len17h06754c61dda3b317E
	movq	%rax, -64(%rbp)
	movq	-40(%rbp), %rdi
	movq	-48(%rbp), %rsi
	callq	__ZN4core5slice29_$LT$impl$u20$$u5b$T$u5d$$GT$3len17h24a66b66aa57f6d3E
	movq	%rax, -72(%rbp)
	movq	-64(%rbp), %rax
	movq	-72(%rbp), %rcx
	addq	%rcx, %rax
	movq	-32(%rbp), %rdi
	movq	%rax, %rsi
	callq	__ZN33_$LT$alloc..vec..Vec$LT$T$GT$$GT$7set_len17h53d5f95948e01966E
	movq	-32(%rbp), %rdi
	callq	__ZN71_$LT$alloc..vec..Vec$LT$T$GT$$u20$as$u20$core..ops..deref..DerefMut$GT$9deref_mut17h17be947e1c98318cE
	movq	%rax, -80(%rbp)
	movq	%rdx, -88(%rbp)
	movq	-64(%rbp), %rax
	movq	%rax, -8(%rbp)
	movq	-8(%rbp), %rdx
	movq	-80(%rbp), %rdi
	movq	-88(%rbp), %rsi
	callq	__ZN4core5slice29_$LT$impl$u20$$u5b$T$u5d$$GT$17get_unchecked_mut17ha1a1ab02d2895d4dE
	movq	%rax, -96(%rbp)
	movq	%rdx, -104(%rbp)
	movq	-96(%rbp), %rdi
	movq	-104(%rbp), %rsi
	movq	-40(%rbp), %rdx
	movq	-48(%rbp), %rcx
	callq	__ZN4core5slice29_$LT$impl$u20$$u5b$T$u5d$$GT$15copy_from_slice17hfead5cd3183d7ea9E
	addq	$112, %rsp
	popq	%rbp
	retq
	.cfi_endproc

	.p2align	4, 0x90
__ZN33_$LT$alloc..vec..Vec$LT$T$GT$$GT$13with_capacity17hbe7f3f19fe23d49bE:
	.cfi_startproc
	pushq	%rbp
	.cfi_def_cfa_offset 16
	.cfi_offset %rbp, -16
	movq	%rsp, %rbp
	.cfi_def_cfa_register %rbp
	subq	$32, %rsp
	movq	%rdi, %rax
	movq	%rdi, -8(%rbp)
	movq	%rsi, %rdi
	movq	%rax, -16(%rbp)
	callq	__ZN40_$LT$alloc..raw_vec..RawVec$LT$T$GT$$GT$13with_capacity17hac0a06a5d0da4f3fE
	movq	%rax, -24(%rbp)
	movq	%rdx, -32(%rbp)
	movq	-8(%rbp), %rax
	movq	-24(%rbp), %rcx
	movq	%rcx, (%rax)
	movq	-32(%rbp), %rdx
	movq	%rdx, 8(%rax)
	movq	$0, 16(%rax)
	movq	-16(%rbp), %rax
	addq	$32, %rsp
	popq	%rbp
	retq
	.cfi_endproc

	.p2align	4, 0x90
__ZN33_$LT$alloc..vec..Vec$LT$T$GT$$GT$16extend_desugared17h33d852b9f4be37daE:
Lfunc_begin2:
	.cfi_startproc
	.cfi_personality 155, _rust_eh_personality
	.cfi_lsda 16, Lexception2
	pushq	%rbp
	.cfi_def_cfa_offset 16
	.cfi_offset %rbp, -16
	movq	%rsp, %rbp
	.cfi_def_cfa_register %rbp
	subq	$144, %rsp
	movb	$0, -17(%rbp)
	movq	%rdi, -64(%rbp)
	movq	%rsi, -72(%rbp)
LBB18_1:
Ltmp92:
	movq	-72(%rbp), %rdi
	callq	__ZN84_$LT$core..iter..Map$LT$I$C$$u20$F$GT$$u20$as$u20$core..iter..iterator..Iterator$GT$4next17h6ea24c3503e3b233E
Ltmp93:
	movss	%xmm0, -76(%rbp)
	movl	%eax, -80(%rbp)
	jmp	LBB18_4
LBB18_2:
	movq	-16(%rbp), %rdi
	callq	__Unwind_Resume
	ud2
LBB18_3:
	movq	-72(%rbp), %rdi
	callq	__ZN4core3ptr13drop_in_place17h82d8720f7b1fb549E
	jmp	LBB18_2
LBB18_4:
	movl	-80(%rbp), %eax
	movl	%eax, -56(%rbp)
	movss	-76(%rbp), %xmm0
	movss	%xmm0, -52(%rbp)
	movl	-56(%rbp), %ecx
	movl	%ecx, %edx
	cmpq	$1, %rdx
	je	LBB18_6
	movb	$0, -17(%rbp)
	jmp	LBB18_20
LBB18_6:
	movb	$1, -17(%rbp)
	movss	-52(%rbp), %xmm0
Ltmp95:
	movq	-64(%rbp), %rdi
	movss	%xmm0, -84(%rbp)
	callq	__ZN33_$LT$alloc..vec..Vec$LT$T$GT$$GT$3len17hf8e70828feed4d5bE
Ltmp96:
	movq	%rax, -96(%rbp)
	jmp	LBB18_7
LBB18_7:
Ltmp97:
	movq	-64(%rbp), %rdi
	callq	__ZN33_$LT$alloc..vec..Vec$LT$T$GT$$GT$8capacity17h1d3ccc320000a097E
Ltmp98:
	movq	%rax, -104(%rbp)
	jmp	LBB18_10
LBB18_8:
	movl	-56(%rbp), %eax
	movl	%eax, %ecx
	cmpq	$1, %rcx
	je	LBB18_3
	jmp	LBB18_22
LBB18_9:
	testb	$1, -17(%rbp)
	jne	LBB18_23
	jmp	LBB18_8
LBB18_10:
	movq	-96(%rbp), %rax
	movq	-104(%rbp), %rcx
	cmpq	%rcx, %rax
	jne	LBB18_15
Ltmp99:
	leaq	-48(%rbp), %rdi
	movq	-72(%rbp), %rsi
	callq	__ZN84_$LT$core..iter..Map$LT$I$C$$u20$F$GT$$u20$as$u20$core..iter..iterator..Iterator$GT$9size_hint17h793aeee8d0a07497E
Ltmp100:
	jmp	LBB18_12
LBB18_12:
	movq	-48(%rbp), %rdi
Ltmp101:
	movl	$1, %esi
	callq	__ZN4core3num23_$LT$impl$u20$usize$GT$14saturating_add17hc4727c616d197ecdE
Ltmp102:
	movq	%rax, -112(%rbp)
	jmp	LBB18_13
LBB18_13:
Ltmp103:
	movq	-64(%rbp), %rdi
	movq	-112(%rbp), %rsi
	callq	__ZN33_$LT$alloc..vec..Vec$LT$T$GT$$GT$7reserve17hf3abc910715d4f42E
Ltmp104:
	jmp	LBB18_14
LBB18_14:
	jmp	LBB18_15
LBB18_15:
Ltmp105:
	movq	-64(%rbp), %rdi
	callq	__ZN71_$LT$alloc..vec..Vec$LT$T$GT$$u20$as$u20$core..ops..deref..DerefMut$GT$9deref_mut17ha0417ced5cf183a5E
Ltmp106:
	movq	%rdx, -120(%rbp)
	movq	%rax, -128(%rbp)
	jmp	LBB18_16
LBB18_16:
Ltmp107:
	movq	-128(%rbp), %rdi
	movq	-120(%rbp), %rsi
	movq	-96(%rbp), %rdx
	callq	__ZN4core5slice29_$LT$impl$u20$$u5b$T$u5d$$GT$17get_unchecked_mut17h5730bc15fdd9cab7E
Ltmp108:
	movq	%rax, -136(%rbp)
	jmp	LBB18_17
LBB18_17:
	movb	$0, -17(%rbp)
Ltmp109:
	movq	-136(%rbp), %rdi
	movss	-84(%rbp), %xmm0
	callq	__ZN4core3ptr5write17hefc64772c25766caE
Ltmp110:
	jmp	LBB18_18
LBB18_18:
	movq	-96(%rbp), %rax
	incq	%rax
Ltmp111:
	movq	-64(%rbp), %rdi
	movq	%rax, %rsi
	callq	__ZN33_$LT$alloc..vec..Vec$LT$T$GT$$GT$7set_len17h5a4edc15e6ad4837E
Ltmp112:
	jmp	LBB18_19
LBB18_19:
	movb	$0, -17(%rbp)
	movl	-56(%rbp), %eax
	movl	%eax, %ecx
	cmpq	$1, %rcx
	je	LBB18_24
	jmp	LBB18_25
LBB18_20:
	movq	-72(%rbp), %rdi
	callq	__ZN4core3ptr13drop_in_place17h82d8720f7b1fb549E
	addq	$144, %rsp
	popq	%rbp
	retq
LBB18_22:
	jmp	LBB18_3
LBB18_23:
	movb	$0, -17(%rbp)
	jmp	LBB18_8
LBB18_24:
	jmp	LBB18_1
LBB18_25:
	jmp	LBB18_24
LBB18_26:
Ltmp94:
	movl	%edx, %ecx
	movq	%rax, -16(%rbp)
	movl	%ecx, -8(%rbp)
	jmp	LBB18_3
LBB18_27:
Ltmp113:
	movl	%edx, %ecx
	movq	%rax, -16(%rbp)
	movl	%ecx, -8(%rbp)
	jmp	LBB18_9
Lfunc_end2:
	.cfi_endproc
	.section	__TEXT,__gcc_except_tab
	.p2align	2
GCC_except_table18:
Lexception2:
	.byte	255
	.byte	255
	.byte	1
	.uleb128 Lcst_end2-Lcst_begin2
Lcst_begin2:
	.uleb128 Ltmp92-Lfunc_begin2
	.uleb128 Ltmp93-Ltmp92
	.uleb128 Ltmp94-Lfunc_begin2
	.byte	0
	.uleb128 Ltmp93-Lfunc_begin2
	.uleb128 Ltmp95-Ltmp93
	.byte	0
	.byte	0
	.uleb128 Ltmp95-Lfunc_begin2
	.uleb128 Ltmp112-Ltmp95
	.uleb128 Ltmp113-Lfunc_begin2
	.byte	0
	.uleb128 Ltmp112-Lfunc_begin2
	.uleb128 Lfunc_end2-Ltmp112
	.byte	0
	.byte	0
Lcst_end2:
	.p2align	2

	.section	__TEXT,__text,regular,pure_instructions
	.p2align	4, 0x90
__ZN33_$LT$alloc..vec..Vec$LT$T$GT$$GT$17extend_from_slice17h5315c65564295670E:
	.cfi_startproc
	pushq	%rbp
	.cfi_def_cfa_offset 16
	.cfi_offset %rbp, -16
	movq	%rsp, %rbp
	.cfi_def_cfa_register %rbp
	subq	$32, %rsp
	movq	%rdi, -8(%rbp)
	movq	%rsi, %rdi
	movq	%rdx, %rsi
	callq	__ZN4core5slice29_$LT$impl$u20$$u5b$T$u5d$$GT$4iter17h0e3b8706266cd450E
	movq	%rax, -16(%rbp)
	movq	%rdx, -24(%rbp)
	movq	-8(%rbp), %rdi
	movq	-16(%rbp), %rsi
	movq	-24(%rbp), %rdx
	callq	__ZN139_$LT$alloc..vec..Vec$LT$T$GT$$u20$as$u20$alloc..vec..SpecExtend$LT$$RF$$u27$a$u20$T$C$$u20$core..slice..Iter$LT$$u27$a$C$$u20$T$GT$$GT$$GT$11spec_extend17hbfaa7f8262ac6f97E
	addq	$32, %rsp
	popq	%rbp
	retq
	.cfi_endproc

	.p2align	4, 0x90
__ZN33_$LT$alloc..vec..Vec$LT$T$GT$$GT$3len17h06754c61dda3b317E:
	.cfi_startproc
	pushq	%rbp
	.cfi_def_cfa_offset 16
	.cfi_offset %rbp, -16
	movq	%rsp, %rbp
	.cfi_def_cfa_register %rbp
	movq	16(%rdi), %rax
	popq	%rbp
	retq
	.cfi_endproc

	.p2align	4, 0x90
__ZN33_$LT$alloc..vec..Vec$LT$T$GT$$GT$3len17hf8e70828feed4d5bE:
	.cfi_startproc
	pushq	%rbp
	.cfi_def_cfa_offset 16
	.cfi_offset %rbp, -16
	movq	%rsp, %rbp
	.cfi_def_cfa_register %rbp
	movq	16(%rdi), %rax
	popq	%rbp
	retq
	.cfi_endproc

	.p2align	4, 0x90
__ZN33_$LT$alloc..vec..Vec$LT$T$GT$$GT$3new17h16edf54c0960fbfdE:
	.cfi_startproc
	pushq	%rbp
	.cfi_def_cfa_offset 16
	.cfi_offset %rbp, -16
	movq	%rsp, %rbp
	.cfi_def_cfa_register %rbp
	subq	$32, %rsp
	movq	%rdi, %rax
	movq	%rax, -8(%rbp)
	movq	%rdi, -16(%rbp)
	callq	__ZN40_$LT$alloc..raw_vec..RawVec$LT$T$GT$$GT$3new17h4bf8063bcb08f014E
	movq	%rax, -24(%rbp)
	movq	%rdx, -32(%rbp)
	movq	-16(%rbp), %rax
	movq	-24(%rbp), %rcx
	movq	%rcx, (%rax)
	movq	-32(%rbp), %rdx
	movq	%rdx, 8(%rax)
	movq	$0, 16(%rax)
	movq	-8(%rbp), %rax
	addq	$32, %rsp
	popq	%rbp
	retq
	.cfi_endproc

	.p2align	4, 0x90
__ZN33_$LT$alloc..vec..Vec$LT$T$GT$$GT$3new17h8cd7a326d1407c4dE:
	.cfi_startproc
	pushq	%rbp
	.cfi_def_cfa_offset 16
	.cfi_offset %rbp, -16
	movq	%rsp, %rbp
	.cfi_def_cfa_register %rbp
	subq	$32, %rsp
	movq	%rdi, %rax
	movq	%rax, -8(%rbp)
	movq	%rdi, -16(%rbp)
	callq	__ZN40_$LT$alloc..raw_vec..RawVec$LT$T$GT$$GT$3new17hec37f96432a66a5aE
	movq	%rax, -24(%rbp)
	movq	%rdx, -32(%rbp)
	movq	-16(%rbp), %rax
	movq	-24(%rbp), %rcx
	movq	%rcx, (%rax)
	movq	-32(%rbp), %rdx
	movq	%rdx, 8(%rax)
	movq	$0, 16(%rax)
	movq	-8(%rbp), %rax
	addq	$32, %rsp
	popq	%rbp
	retq
	.cfi_endproc

	.p2align	4, 0x90
__ZN33_$LT$alloc..vec..Vec$LT$T$GT$$GT$7reserve17hd4320088b436a7ebE:
	.cfi_startproc
	pushq	%rbp
	.cfi_def_cfa_offset 16
	.cfi_offset %rbp, -16
	movq	%rsp, %rbp
	.cfi_def_cfa_register %rbp
	subq	$16, %rsp
	movq	%rdi, %rax
	movq	16(%rdi), %rdi
	movq	%rdi, -8(%rbp)
	movq	%rax, %rdi
	movq	-8(%rbp), %rax
	movq	%rsi, -16(%rbp)
	movq	%rax, %rsi
	movq	-16(%rbp), %rdx
	callq	__ZN49_$LT$alloc..raw_vec..RawVec$LT$T$C$$u20$A$GT$$GT$7reserve17hff926930e8d0f16dE
	addq	$16, %rsp
	popq	%rbp
	retq
	.cfi_endproc

	.p2align	4, 0x90
__ZN33_$LT$alloc..vec..Vec$LT$T$GT$$GT$7reserve17hf3abc910715d4f42E:
	.cfi_startproc
	pushq	%rbp
	.cfi_def_cfa_offset 16
	.cfi_offset %rbp, -16
	movq	%rsp, %rbp
	.cfi_def_cfa_register %rbp
	subq	$16, %rsp
	movq	%rdi, %rax
	movq	16(%rdi), %rdi
	movq	%rdi, -8(%rbp)
	movq	%rax, %rdi
	movq	-8(%rbp), %rax
	movq	%rsi, -16(%rbp)
	movq	%rax, %rsi
	movq	-16(%rbp), %rdx
	callq	__ZN49_$LT$alloc..raw_vec..RawVec$LT$T$C$$u20$A$GT$$GT$7reserve17h77a6abcea20b2b86E
	addq	$16, %rsp
	popq	%rbp
	retq
	.cfi_endproc

	.p2align	4, 0x90
__ZN33_$LT$alloc..vec..Vec$LT$T$GT$$GT$7set_len17h53d5f95948e01966E:
	.cfi_startproc
	pushq	%rbp
	.cfi_def_cfa_offset 16
	.cfi_offset %rbp, -16
	movq	%rsp, %rbp
	.cfi_def_cfa_register %rbp
	movq	%rsi, 16(%rdi)
	popq	%rbp
	retq
	.cfi_endproc

	.p2align	4, 0x90
__ZN33_$LT$alloc..vec..Vec$LT$T$GT$$GT$7set_len17h5a4edc15e6ad4837E:
	.cfi_startproc
	pushq	%rbp
	.cfi_def_cfa_offset 16
	.cfi_offset %rbp, -16
	movq	%rsp, %rbp
	.cfi_def_cfa_register %rbp
	movq	%rsi, 16(%rdi)
	popq	%rbp
	retq
	.cfi_endproc

	.p2align	4, 0x90
__ZN33_$LT$alloc..vec..Vec$LT$T$GT$$GT$8capacity17h1d3ccc320000a097E:
	.cfi_startproc
	pushq	%rbp
	.cfi_def_cfa_offset 16
	.cfi_offset %rbp, -16
	movq	%rsp, %rbp
	.cfi_def_cfa_register %rbp
	subq	$32, %rsp
	movq	%rdi, -16(%rbp)
	callq	__ZN4core3mem7size_of17hbd521d92caede32eE
	cmpq	$0, %rax
	jne	LBB28_2
	movq	$-1, -8(%rbp)
	jmp	LBB28_3
LBB28_2:
	movq	-16(%rbp), %rax
	movq	8(%rax), %rcx
	movq	%rcx, -8(%rbp)
LBB28_3:
	movq	-8(%rbp), %rax
	movq	%rax, -24(%rbp)
	movq	-24(%rbp), %rax
	addq	$32, %rsp
	popq	%rbp
	retq
	.cfi_endproc

	.p2align	4, 0x90
__ZN34_$LT$alloc..sync..Arc$LT$T$GT$$GT$5inner17h5e18fc2d1d95f0e3E:
	.cfi_startproc
	pushq	%rbp
	.cfi_def_cfa_offset 16
	.cfi_offset %rbp, -16
	movq	%rsp, %rbp
	.cfi_def_cfa_register %rbp
	subq	$16, %rsp
	callq	__ZN36_$LT$core..ptr..NonNull$LT$T$GT$$GT$6as_ref17h3d6419bb3b060e0fE
	movq	%rax, -8(%rbp)
	movq	-8(%rbp), %rax
	addq	$16, %rsp
	popq	%rbp
	retq
	.cfi_endproc

	.p2align	4, 0x90
__ZN34_$LT$alloc..sync..Arc$LT$T$GT$$GT$9drop_slow17hadbdbe4ba4eb56daE:
	.cfi_startproc
	pushq	%rbp
	.cfi_def_cfa_offset 16
	.cfi_offset %rbp, -16
	movq	%rsp, %rbp
	.cfi_def_cfa_register %rbp
	subq	$80, %rsp
	movq	%rdi, -24(%rbp)
	callq	__ZN36_$LT$core..ptr..NonNull$LT$T$GT$$GT$6as_mut17hfebe75b08ac2ba8cE
	movq	%rax, -32(%rbp)
	movq	-32(%rbp), %rax
	addq	$16, %rax
	movq	%rax, %rdi
	callq	__ZN4core3ptr13drop_in_place17h0ade7c2df70387d6E
	movq	-24(%rbp), %rdi
	callq	__ZN34_$LT$alloc..sync..Arc$LT$T$GT$$GT$5inner17h5e18fc2d1d95f0e3E
	movq	%rax, -40(%rbp)
	movl	$1, %eax
	movl	%eax, %esi
	movq	-40(%rbp), %rcx
	addq	$8, %rcx
	movb	$1, -10(%rbp)
	movq	%rcx, %rdi
	movzbl	-10(%rbp), %edx
	callq	__ZN4core4sync6atomic11AtomicUsize9fetch_sub17h22f574f703b9f2f2E
	movq	%rax, -48(%rbp)
	movq	-48(%rbp), %rax
	cmpq	$1, %rax
	jne	LBB30_11
	movb	$2, -9(%rbp)
	movzbl	-9(%rbp), %edi
	callq	__ZN4core4sync6atomic5fence17h06b00ed11998ba2bE
	movq	-24(%rbp), %rax
	movq	(%rax), %rdi
	callq	__ZN36_$LT$core..ptr..NonNull$LT$T$GT$$GT$4cast17h12082e9b61143332E
	movq	%rax, -56(%rbp)
	movq	-24(%rbp), %rdi
	callq	__ZN36_$LT$core..ptr..NonNull$LT$T$GT$$GT$6as_ref17h3d6419bb3b060e0fE
	movq	%rax, -64(%rbp)
	movq	-64(%rbp), %rdi
	callq	__ZN4core5alloc6Layout9for_value17ha59b4d2dd42efd7aE
	movq	%rax, -72(%rbp)
	movq	%rdx, -80(%rbp)
	leaq	-8(%rbp), %rdi
	movq	-56(%rbp), %rsi
	movq	-72(%rbp), %rdx
	movq	-80(%rbp), %rcx
	callq	__ZN59_$LT$alloc..alloc..Global$u20$as$u20$core..alloc..Alloc$GT$7dealloc17hfb52b4c9845472fdE
	jmp	LBB30_11
LBB30_11:
	addq	$80, %rsp
	popq	%rbp
	retq
	.cfi_endproc

	.p2align	4, 0x90
__ZN35_$LT$core..ptr..Unique$LT$T$GT$$GT$13new_unchecked17h292e412bc1c4e4ceE:
	.cfi_startproc
	pushq	%rbp
	.cfi_def_cfa_offset 16
	.cfi_offset %rbp, -16
	movq	%rsp, %rbp
	.cfi_def_cfa_register %rbp
	subq	$24, %rsp
	movq	%rdi, -16(%rbp)
	movq	-16(%rbp), %rdi
	movq	%rdi, -24(%rbp)
	movq	-24(%rbp), %rax
	addq	$24, %rsp
	popq	%rbp
	retq
	.cfi_endproc

	.p2align	4, 0x90
__ZN35_$LT$core..ptr..Unique$LT$T$GT$$GT$13new_unchecked17hbe2dfb17879f31e8E:
	.cfi_startproc
	pushq	%rbp
	.cfi_def_cfa_offset 16
	.cfi_offset %rbp, -16
	movq	%rsp, %rbp
	.cfi_def_cfa_register %rbp
	subq	$24, %rsp
	movq	%rdi, -16(%rbp)
	movq	-16(%rbp), %rdi
	movq	%rdi, -24(%rbp)
	movq	-24(%rbp), %rax
	addq	$24, %rsp
	popq	%rbp
	retq
	.cfi_endproc

	.p2align	4, 0x90
__ZN35_$LT$core..ptr..Unique$LT$T$GT$$GT$5empty17h2bf95fc1915729e0E:
	.cfi_startproc
	pushq	%rbp
	.cfi_def_cfa_offset 16
	.cfi_offset %rbp, -16
	movq	%rsp, %rbp
	.cfi_def_cfa_register %rbp
	subq	$16, %rsp
	callq	__ZN4core3mem8align_of17h195604b2ef2f3f03E
	movq	%rax, -8(%rbp)
	movq	-8(%rbp), %rdi
	callq	__ZN35_$LT$core..ptr..Unique$LT$T$GT$$GT$13new_unchecked17h292e412bc1c4e4ceE
	movq	%rax, -16(%rbp)
	movq	-16(%rbp), %rax
	addq	$16, %rsp
	popq	%rbp
	retq
	.cfi_endproc

	.p2align	4, 0x90
__ZN35_$LT$core..ptr..Unique$LT$T$GT$$GT$5empty17h80fab7e3a6dc86b8E:
	.cfi_startproc
	pushq	%rbp
	.cfi_def_cfa_offset 16
	.cfi_offset %rbp, -16
	movq	%rsp, %rbp
	.cfi_def_cfa_register %rbp
	subq	$16, %rsp
	callq	__ZN4core3mem8align_of17hac49404a9d1fa1e4E
	movq	%rax, -8(%rbp)
	movq	-8(%rbp), %rdi
	callq	__ZN35_$LT$core..ptr..Unique$LT$T$GT$$GT$13new_unchecked17hbe2dfb17879f31e8E
	movq	%rax, -16(%rbp)
	movq	-16(%rbp), %rax
	addq	$16, %rsp
	popq	%rbp
	retq
	.cfi_endproc

	.p2align	4, 0x90
__ZN35_$LT$core..ptr..Unique$LT$T$GT$$GT$6as_ptr17h01dbf27906247af7E:
	.cfi_startproc
	pushq	%rbp
	.cfi_def_cfa_offset 16
	.cfi_offset %rbp, -16
	movq	%rsp, %rbp
	.cfi_def_cfa_register %rbp
	movq	%rdi, %rax
	movq	%rsi, %rdx
	popq	%rbp
	retq
	.cfi_endproc

	.p2align	4, 0x90
__ZN35_$LT$core..ptr..Unique$LT$T$GT$$GT$6as_ptr17h02ef7886822b6f07E:
	.cfi_startproc
	pushq	%rbp
	.cfi_def_cfa_offset 16
	.cfi_offset %rbp, -16
	movq	%rsp, %rbp
	.cfi_def_cfa_register %rbp
	movq	%rdi, %rax
	popq	%rbp
	retq
	.cfi_endproc

	.p2align	4, 0x90
__ZN35_$LT$core..ptr..Unique$LT$T$GT$$GT$6as_ptr17h33d989cc572b76e2E:
	.cfi_startproc
	pushq	%rbp
	.cfi_def_cfa_offset 16
	.cfi_offset %rbp, -16
	movq	%rsp, %rbp
	.cfi_def_cfa_register %rbp
	movq	%rdi, %rax
	movq	%rsi, %rdx
	popq	%rbp
	retq
	.cfi_endproc

	.p2align	4, 0x90
__ZN35_$LT$core..ptr..Unique$LT$T$GT$$GT$6as_ptr17h4146dc0002d2adb5E:
	.cfi_startproc
	pushq	%rbp
	.cfi_def_cfa_offset 16
	.cfi_offset %rbp, -16
	movq	%rsp, %rbp
	.cfi_def_cfa_register %rbp
	movq	%rdi, %rax
	popq	%rbp
	retq
	.cfi_endproc

	.p2align	4, 0x90
__ZN35_$LT$core..ptr..Unique$LT$T$GT$$GT$6as_ptr17ha0bcdbb725dc84b1E:
	.cfi_startproc
	pushq	%rbp
	.cfi_def_cfa_offset 16
	.cfi_offset %rbp, -16
	movq	%rsp, %rbp
	.cfi_def_cfa_register %rbp
	movq	%rdi, %rax
	popq	%rbp
	retq
	.cfi_endproc

	.p2align	4, 0x90
__ZN35_$LT$core..ptr..Unique$LT$T$GT$$GT$6as_ptr17hb98fbab04acc2f9eE:
	.cfi_startproc
	pushq	%rbp
	.cfi_def_cfa_offset 16
	.cfi_offset %rbp, -16
	movq	%rsp, %rbp
	.cfi_def_cfa_register %rbp
	movq	%rdi, %rax
	popq	%rbp
	retq
	.cfi_endproc

	.p2align	4, 0x90
__ZN36_$LT$core..ptr..NonNull$LT$T$GT$$GT$13new_unchecked17h1269c9b443976e85E:
	.cfi_startproc
	pushq	%rbp
	.cfi_def_cfa_offset 16
	.cfi_offset %rbp, -16
	movq	%rsp, %rbp
	.cfi_def_cfa_register %rbp
	subq	$16, %rsp
	movq	%rdi, -8(%rbp)
	movq	-8(%rbp), %rdi
	movq	%rdi, -16(%rbp)
	movq	-16(%rbp), %rax
	addq	$16, %rsp
	popq	%rbp
	retq
	.cfi_endproc

	.p2align	4, 0x90
__ZN36_$LT$core..ptr..NonNull$LT$T$GT$$GT$13new_unchecked17h9c740a683b20bb7eE:
	.cfi_startproc
	pushq	%rbp
	.cfi_def_cfa_offset 16
	.cfi_offset %rbp, -16
	movq	%rsp, %rbp
	.cfi_def_cfa_register %rbp
	subq	$16, %rsp
	movq	%rdi, -8(%rbp)
	movq	-8(%rbp), %rdi
	movq	%rdi, -16(%rbp)
	movq	-16(%rbp), %rax
	addq	$16, %rsp
	popq	%rbp
	retq
	.cfi_endproc

	.p2align	4, 0x90
__ZN36_$LT$core..ptr..NonNull$LT$T$GT$$GT$3new17hf291811d442ee116E:
	.cfi_startproc
	pushq	%rbp
	.cfi_def_cfa_offset 16
	.cfi_offset %rbp, -16
	movq	%rsp, %rbp
	.cfi_def_cfa_register %rbp
	subq	$48, %rsp
	movq	%rdi, -32(%rbp)
	callq	__ZN4core3ptr31_$LT$impl$u20$$BP$mut$u20$T$GT$7is_null17h668cf8d88faa583dE
	movb	%al, -33(%rbp)
	movb	-33(%rbp), %al
	xorb	$-1, %al
	testb	$1, %al
	jne	LBB43_2
	jmp	LBB43_3
LBB43_2:
	movq	-32(%rbp), %rax
	movq	%rax, -8(%rbp)
	movq	-8(%rbp), %rcx
	movq	%rcx, -16(%rbp)
	movq	-16(%rbp), %rcx
	movq	%rcx, -24(%rbp)
	jmp	LBB43_4
LBB43_3:
	movq	$0, -24(%rbp)
LBB43_4:
	movq	-24(%rbp), %rax
	addq	$48, %rsp
	popq	%rbp
	retq
	.cfi_endproc

	.p2align	4, 0x90
__ZN36_$LT$core..ptr..NonNull$LT$T$GT$$GT$4cast17h12082e9b61143332E:
	.cfi_startproc
	pushq	%rbp
	.cfi_def_cfa_offset 16
	.cfi_offset %rbp, -16
	movq	%rsp, %rbp
	.cfi_def_cfa_register %rbp
	subq	$16, %rsp
	callq	__ZN36_$LT$core..ptr..NonNull$LT$T$GT$$GT$6as_ptr17h6790c23ba44c0eeeE
	movq	%rax, -8(%rbp)
	movq	-8(%rbp), %rax
	movq	%rax, %rdi
	callq	__ZN36_$LT$core..ptr..NonNull$LT$T$GT$$GT$13new_unchecked17h9c740a683b20bb7eE
	movq	%rax, -16(%rbp)
	movq	-16(%rbp), %rax
	addq	$16, %rsp
	popq	%rbp
	retq
	.cfi_endproc

	.p2align	4, 0x90
__ZN36_$LT$core..ptr..NonNull$LT$T$GT$$GT$4cast17h32fe31ab7f97a563E:
	.cfi_startproc
	pushq	%rbp
	.cfi_def_cfa_offset 16
	.cfi_offset %rbp, -16
	movq	%rsp, %rbp
	.cfi_def_cfa_register %rbp
	subq	$16, %rsp
	callq	__ZN36_$LT$core..ptr..NonNull$LT$T$GT$$GT$6as_ptr17h710fd8858baffd2aE
	movq	%rax, -8(%rbp)
	movq	-8(%rbp), %rax
	movq	%rax, %rdi
	callq	__ZN36_$LT$core..ptr..NonNull$LT$T$GT$$GT$13new_unchecked17h1269c9b443976e85E
	movq	%rax, -16(%rbp)
	movq	-16(%rbp), %rax
	addq	$16, %rsp
	popq	%rbp
	retq
	.cfi_endproc

	.p2align	4, 0x90
__ZN36_$LT$core..ptr..NonNull$LT$T$GT$$GT$4cast17h8c3ade831783f3ecE:
	.cfi_startproc
	pushq	%rbp
	.cfi_def_cfa_offset 16
	.cfi_offset %rbp, -16
	movq	%rsp, %rbp
	.cfi_def_cfa_register %rbp
	subq	$16, %rsp
	callq	__ZN36_$LT$core..ptr..NonNull$LT$T$GT$$GT$6as_ptr17h893c70eb4f372932E
	movq	%rax, -8(%rbp)
	movq	-8(%rbp), %rax
	movq	%rax, %rdi
	callq	__ZN36_$LT$core..ptr..NonNull$LT$T$GT$$GT$13new_unchecked17h9c740a683b20bb7eE
	movq	%rax, -16(%rbp)
	movq	-16(%rbp), %rax
	addq	$16, %rsp
	popq	%rbp
	retq
	.cfi_endproc

	.p2align	4, 0x90
__ZN36_$LT$core..ptr..NonNull$LT$T$GT$$GT$4cast17hd4917807fdeac476E:
	.cfi_startproc
	pushq	%rbp
	.cfi_def_cfa_offset 16
	.cfi_offset %rbp, -16
	movq	%rsp, %rbp
	.cfi_def_cfa_register %rbp
	subq	$16, %rsp
	callq	__ZN36_$LT$core..ptr..NonNull$LT$T$GT$$GT$6as_ptr17h710fd8858baffd2aE
	movq	%rax, -8(%rbp)
	movq	-8(%rbp), %rdi
	callq	__ZN36_$LT$core..ptr..NonNull$LT$T$GT$$GT$13new_unchecked17h9c740a683b20bb7eE
	movq	%rax, -16(%rbp)
	movq	-16(%rbp), %rax
	addq	$16, %rsp
	popq	%rbp
	retq
	.cfi_endproc

	.p2align	4, 0x90
__ZN36_$LT$core..ptr..NonNull$LT$T$GT$$GT$6as_mut17hfebe75b08ac2ba8cE:
	.cfi_startproc
	pushq	%rbp
	.cfi_def_cfa_offset 16
	.cfi_offset %rbp, -16
	movq	%rsp, %rbp
	.cfi_def_cfa_register %rbp
	subq	$16, %rsp
	movq	(%rdi), %rdi
	callq	__ZN36_$LT$core..ptr..NonNull$LT$T$GT$$GT$6as_ptr17h6790c23ba44c0eeeE
	movq	%rax, -8(%rbp)
	movq	-8(%rbp), %rax
	addq	$16, %rsp
	popq	%rbp
	retq
	.cfi_endproc

	.p2align	4, 0x90
__ZN36_$LT$core..ptr..NonNull$LT$T$GT$$GT$6as_ptr17h6790c23ba44c0eeeE:
	.cfi_startproc
	pushq	%rbp
	.cfi_def_cfa_offset 16
	.cfi_offset %rbp, -16
	movq	%rsp, %rbp
	.cfi_def_cfa_register %rbp
	movq	%rdi, %rax
	popq	%rbp
	retq
	.cfi_endproc

	.p2align	4, 0x90
__ZN36_$LT$core..ptr..NonNull$LT$T$GT$$GT$6as_ptr17h710fd8858baffd2aE:
	.cfi_startproc
	pushq	%rbp
	.cfi_def_cfa_offset 16
	.cfi_offset %rbp, -16
	movq	%rsp, %rbp
	.cfi_def_cfa_register %rbp
	movq	%rdi, %rax
	popq	%rbp
	retq
	.cfi_endproc

	.p2align	4, 0x90
__ZN36_$LT$core..ptr..NonNull$LT$T$GT$$GT$6as_ptr17h893c70eb4f372932E:
	.cfi_startproc
	pushq	%rbp
	.cfi_def_cfa_offset 16
	.cfi_offset %rbp, -16
	movq	%rsp, %rbp
	.cfi_def_cfa_register %rbp
	movq	%rdi, %rax
	popq	%rbp
	retq
	.cfi_endproc

	.p2align	4, 0x90
__ZN36_$LT$core..ptr..NonNull$LT$T$GT$$GT$6as_ref17h3d6419bb3b060e0fE:
	.cfi_startproc
	pushq	%rbp
	.cfi_def_cfa_offset 16
	.cfi_offset %rbp, -16
	movq	%rsp, %rbp
	.cfi_def_cfa_register %rbp
	subq	$16, %rsp
	movq	(%rdi), %rdi
	callq	__ZN36_$LT$core..ptr..NonNull$LT$T$GT$$GT$6as_ptr17h6790c23ba44c0eeeE
	movq	%rax, -8(%rbp)
	movq	-8(%rbp), %rax
	addq	$16, %rsp
	popq	%rbp
	retq
	.cfi_endproc

	.p2align	4, 0x90
__ZN36_$LT$core..ptr..NonNull$LT$T$GT$$GT$8dangling17hfa7e56e578e2543bE:
	.cfi_startproc
	pushq	%rbp
	.cfi_def_cfa_offset 16
	.cfi_offset %rbp, -16
	movq	%rsp, %rbp
	.cfi_def_cfa_register %rbp
	subq	$16, %rsp
	callq	__ZN4core3mem8align_of17hac49404a9d1fa1e4E
	movq	%rax, -8(%rbp)
	movq	-8(%rbp), %rdi
	callq	__ZN36_$LT$core..ptr..NonNull$LT$T$GT$$GT$13new_unchecked17h1269c9b443976e85E
	movq	%rax, -16(%rbp)
	movq	-16(%rbp), %rax
	addq	$16, %rsp
	popq	%rbp
	retq
	.cfi_endproc

	.p2align	4, 0x90
__ZN38_$LT$core..option..Option$LT$T$GT$$GT$14unwrap_or_else17hc8d7de81189eddc6E:
Lfunc_begin3:
	.cfi_startproc
	.cfi_personality 155, _rust_eh_personality
	.cfi_lsda 16, Lexception3
	pushq	%rbp
	.cfi_def_cfa_offset 16
	.cfi_offset %rbp, -16
	movq	%rsp, %rbp
	.cfi_def_cfa_register %rbp
	subq	$80, %rsp
	movq	%rdi, -48(%rbp)
	movq	%rsi, -40(%rbp)
	movb	$0, -18(%rbp)
	movb	$0, -17(%rbp)
	movb	$1, -18(%rbp)
	movb	$1, -17(%rbp)
	movq	-48(%rbp), %rsi
	testq	%rsi, %rsi
	movq	%rsi, -56(%rbp)
	je	LBB54_2
	jmp	LBB54_18
LBB54_18:
	movq	-56(%rbp), %rax
	subq	$1, %rax
	movq	%rax, -64(%rbp)
	je	LBB54_4
	jmp	LBB54_3
LBB54_1:
	movq	-16(%rbp), %rdi
	callq	__Unwind_Resume
	ud2
LBB54_2:
	movb	$0, -17(%rbp)
Ltmp114:
	callq	__ZN49_$LT$alloc..raw_vec..RawVec$LT$T$C$$u20$A$GT$$GT$11allocate_in28_$u7b$$u7b$closure$u7d$$u7d$17hd761884b79c1d600E
Ltmp115:
	movq	%rax, -72(%rbp)
	jmp	LBB54_5
LBB54_3:
	ud2
LBB54_4:
	movb	$0, -18(%rbp)
	movq	-40(%rbp), %rax
	movq	%rax, -32(%rbp)
	jmp	LBB54_6
LBB54_5:
	movq	-72(%rbp), %rax
	movq	%rax, -32(%rbp)
LBB54_6:
	testb	$1, -17(%rbp)
	jne	LBB54_12
LBB54_7:
	cmpq	$1, -48(%rbp)
	je	LBB54_14
	jmp	LBB54_16
LBB54_8:
	testb	$1, -18(%rbp)
	je	LBB54_1
	movb	$0, -18(%rbp)
	jmp	LBB54_1
LBB54_10:
	jmp	LBB54_1
LBB54_11:
	cmpq	$1, -48(%rbp)
	je	LBB54_8
	jmp	LBB54_10
LBB54_12:
	movb	$0, -17(%rbp)
	jmp	LBB54_7
LBB54_13:
	movq	-32(%rbp), %rax
	addq	$80, %rsp
	popq	%rbp
	retq
LBB54_14:
	testb	$1, -18(%rbp)
	je	LBB54_13
	movb	$0, -18(%rbp)
	jmp	LBB54_13
LBB54_16:
	jmp	LBB54_13
LBB54_17:
Ltmp116:
	movl	%edx, %ecx
	movq	%rax, -16(%rbp)
	movl	%ecx, -8(%rbp)
	jmp	LBB54_11
Lfunc_end3:
	.cfi_endproc
	.section	__TEXT,__gcc_except_tab
	.p2align	2
GCC_except_table54:
Lexception3:
	.byte	255
	.byte	255
	.byte	1
	.uleb128 Lcst_end3-Lcst_begin3
Lcst_begin3:
	.uleb128 Lfunc_begin3-Lfunc_begin3
	.uleb128 Ltmp114-Lfunc_begin3
	.byte	0
	.byte	0
	.uleb128 Ltmp114-Lfunc_begin3
	.uleb128 Ltmp115-Ltmp114
	.uleb128 Ltmp116-Lfunc_begin3
	.byte	0
Lcst_end3:
	.p2align	2

	.section	__TEXT,__text,regular,pure_instructions
	.p2align	4, 0x90
__ZN38_$LT$core..option..Option$LT$T$GT$$GT$14unwrap_or_else17hd59ed89ee85b7b57E:
Lfunc_begin4:
	.cfi_startproc
	.cfi_personality 155, _rust_eh_personality
	.cfi_lsda 16, Lexception4
	pushq	%rbp
	.cfi_def_cfa_offset 16
	.cfi_offset %rbp, -16
	movq	%rsp, %rbp
	.cfi_def_cfa_register %rbp
	subq	$128, %rsp
	movq	%rdi, -80(%rbp)
	movq	%rsi, -72(%rbp)
	movb	$0, -18(%rbp)
	movb	$0, -17(%rbp)
	movb	$1, -18(%rbp)
	movb	$1, -17(%rbp)
	movq	-80(%rbp), %rsi
	testq	%rsi, %rsi
	setne	%al
	movzbl	%al, %ecx
	movl	%ecx, %esi
	movq	%rdx, -88(%rbp)
	movq	%rsi, -96(%rbp)
	je	LBB55_2
	jmp	LBB55_18
LBB55_18:
	movq	-96(%rbp), %rax
	subq	$1, %rax
	movq	%rax, -104(%rbp)
	je	LBB55_4
	jmp	LBB55_3
LBB55_1:
	movq	-16(%rbp), %rdi
	callq	__Unwind_Resume
	ud2
LBB55_2:
	movb	$0, -17(%rbp)
	movq	-88(%rbp), %rax
	movq	16(%rax), %rcx
	movq	%rcx, -32(%rbp)
	movq	(%rax), %rcx
	movq	8(%rax), %rdx
	movq	%rdx, -40(%rbp)
	movq	%rcx, -48(%rbp)
Ltmp117:
	leaq	-48(%rbp), %rdi
	callq	__ZN4core3str6traits105_$LT$impl$u20$core..slice..SliceIndex$LT$str$GT$$u20$for$u20$core..ops..range..RangeFrom$LT$usize$GT$$GT$5index28_$u7b$$u7b$closure$u7d$$u7d$17h0ac85e4ee474fc06E
Ltmp118:
	movq	%rdx, -112(%rbp)
	movq	%rax, -120(%rbp)
	jmp	LBB55_5
LBB55_3:
	ud2
LBB55_4:
	movb	$0, -18(%rbp)
	movq	-80(%rbp), %rax
	movq	-72(%rbp), %rcx
	movq	%rax, -64(%rbp)
	movq	%rcx, -56(%rbp)
	jmp	LBB55_6
LBB55_5:
	movq	-120(%rbp), %rax
	movq	%rax, -64(%rbp)
	movq	-112(%rbp), %rcx
	movq	%rcx, -56(%rbp)
LBB55_6:
	testb	$1, -17(%rbp)
	jne	LBB55_12
LBB55_7:
	movl	$1, %eax
	movl	%eax, %ecx
	xorl	%eax, %eax
	movl	%eax, %edx
	cmpq	$0, -80(%rbp)
	cmoveq	%rdx, %rcx
	cmpq	$1, %rcx
	je	LBB55_14
	jmp	LBB55_16
LBB55_8:
	testb	$1, -18(%rbp)
	je	LBB55_1
	movb	$0, -18(%rbp)
	jmp	LBB55_1
LBB55_10:
	jmp	LBB55_1
LBB55_11:
	movl	$1, %eax
	movl	%eax, %ecx
	xorl	%eax, %eax
	movl	%eax, %edx
	cmpq	$0, -80(%rbp)
	cmoveq	%rdx, %rcx
	cmpq	$1, %rcx
	je	LBB55_8
	jmp	LBB55_10
LBB55_12:
	movb	$0, -17(%rbp)
	jmp	LBB55_7
LBB55_13:
	movq	-64(%rbp), %rax
	movq	-56(%rbp), %rdx
	addq	$128, %rsp
	popq	%rbp
	retq
LBB55_14:
	testb	$1, -18(%rbp)
	je	LBB55_13
	movb	$0, -18(%rbp)
	jmp	LBB55_13
LBB55_16:
	jmp	LBB55_13
LBB55_17:
Ltmp119:
	movl	%edx, %ecx
	movq	%rax, -16(%rbp)
	movl	%ecx, -8(%rbp)
	jmp	LBB55_11
Lfunc_end4:
	.cfi_endproc
	.section	__TEXT,__gcc_except_tab
	.p2align	2
GCC_except_table55:
Lexception4:
	.byte	255
	.byte	255
	.byte	1
	.uleb128 Lcst_end4-Lcst_begin4
Lcst_begin4:
	.uleb128 Lfunc_begin4-Lfunc_begin4
	.uleb128 Ltmp117-Lfunc_begin4
	.byte	0
	.byte	0
	.uleb128 Ltmp117-Lfunc_begin4
	.uleb128 Ltmp118-Ltmp117
	.uleb128 Ltmp119-Lfunc_begin4
	.byte	0
Lcst_end4:
	.p2align	2

	.section	__TEXT,__text,regular,pure_instructions
	.p2align	4, 0x90
__ZN38_$LT$core..option..Option$LT$T$GT$$GT$3map17h2eea88d32bfe74e6E:
Lfunc_begin5:
	.cfi_startproc
	.cfi_personality 155, _rust_eh_personality
	.cfi_lsda 16, Lexception5
	pushq	%rbp
	.cfi_def_cfa_offset 16
	.cfi_offset %rbp, -16
	movq	%rsp, %rbp
	.cfi_def_cfa_register %rbp
	subq	$96, %rsp
	movq	%rdi, -64(%rbp)
	movq	%rsi, -56(%rbp)
	movb	$0, -18(%rbp)
	movb	$0, -17(%rbp)
	movb	$1, -18(%rbp)
	movb	$1, -17(%rbp)
	movq	-64(%rbp), %rsi
	testq	%rsi, %rsi
	setne	%al
	movzbl	%al, %ecx
	movl	%ecx, %esi
	movq	%rdx, -72(%rbp)
	movq	%rsi, -80(%rbp)
	je	LBB56_2
	jmp	LBB56_18
LBB56_18:
	movq	-80(%rbp), %rax
	subq	$1, %rax
	movq	%rax, -88(%rbp)
	je	LBB56_4
	jmp	LBB56_3
LBB56_1:
	movq	-16(%rbp), %rdi
	callq	__Unwind_Resume
	ud2
LBB56_2:
	movl	$0, -48(%rbp)
	jmp	LBB56_6
LBB56_3:
	ud2
LBB56_4:
	movb	$0, -18(%rbp)
	movq	-64(%rbp), %rax
	movq	-56(%rbp), %rcx
	movb	$0, -17(%rbp)
	movq	%rax, -40(%rbp)
	movq	%rcx, -32(%rbp)
	movq	-40(%rbp), %rsi
	movq	-32(%rbp), %rdx
Ltmp120:
	movq	-72(%rbp), %rdi
	callq	__ZN4core3ops8function5impls80_$LT$impl$u20$core..ops..function..FnOnce$LT$A$GT$$u20$for$u20$$RF$mut$u20$F$GT$9call_once17h177ae39c47365231E
Ltmp121:
	movss	%xmm0, -92(%rbp)
	jmp	LBB56_5
LBB56_5:
	movss	-92(%rbp), %xmm0
	movss	%xmm0, -44(%rbp)
	movl	$1, -48(%rbp)
LBB56_6:
	testb	$1, -17(%rbp)
	jne	LBB56_12
LBB56_7:
	movl	$1, %eax
	movl	%eax, %ecx
	xorl	%eax, %eax
	movl	%eax, %edx
	cmpq	$0, -64(%rbp)
	cmoveq	%rdx, %rcx
	cmpq	$1, %rcx
	je	LBB56_14
	jmp	LBB56_16
LBB56_8:
	testb	$1, -18(%rbp)
	je	LBB56_1
	movb	$0, -18(%rbp)
	jmp	LBB56_1
LBB56_10:
	jmp	LBB56_1
LBB56_11:
	movl	$1, %eax
	movl	%eax, %ecx
	xorl	%eax, %eax
	movl	%eax, %edx
	cmpq	$0, -64(%rbp)
	cmoveq	%rdx, %rcx
	cmpq	$1, %rcx
	je	LBB56_8
	jmp	LBB56_10
LBB56_12:
	movb	$0, -17(%rbp)
	jmp	LBB56_7
LBB56_13:
	movl	-48(%rbp), %eax
	movss	-44(%rbp), %xmm0
	addq	$96, %rsp
	popq	%rbp
	retq
LBB56_14:
	testb	$1, -18(%rbp)
	je	LBB56_13
	movb	$0, -18(%rbp)
	jmp	LBB56_13
LBB56_16:
	jmp	LBB56_13
LBB56_17:
Ltmp122:
	movl	%edx, %ecx
	movq	%rax, -16(%rbp)
	movl	%ecx, -8(%rbp)
	jmp	LBB56_11
Lfunc_end5:
	.cfi_endproc
	.section	__TEXT,__gcc_except_tab
	.p2align	2
GCC_except_table56:
Lexception5:
	.byte	255
	.byte	255
	.byte	1
	.uleb128 Lcst_end5-Lcst_begin5
Lcst_begin5:
	.uleb128 Lfunc_begin5-Lfunc_begin5
	.uleb128 Ltmp120-Lfunc_begin5
	.byte	0
	.byte	0
	.uleb128 Ltmp120-Lfunc_begin5
	.uleb128 Ltmp121-Ltmp120
	.uleb128 Ltmp122-Lfunc_begin5
	.byte	0
Lcst_end5:
	.p2align	2

	.section	__TEXT,__text,regular,pure_instructions
	.p2align	4, 0x90
__ZN38_$LT$core..option..Option$LT$T$GT$$GT$3map17h4641534c5b9832abE:
Lfunc_begin6:
	.cfi_startproc
	.cfi_personality 155, _rust_eh_personality
	.cfi_lsda 16, Lexception6
	pushq	%rbp
	.cfi_def_cfa_offset 16
	.cfi_offset %rbp, -16
	movq	%rsp, %rbp
	.cfi_def_cfa_register %rbp
	subq	$64, %rsp
	movl	%edi, -40(%rbp)
	movl	%esi, -36(%rbp)
	movb	$0, -18(%rbp)
	movb	$0, -17(%rbp)
	movb	$1, -18(%rbp)
	movb	$1, -17(%rbp)
	movl	-40(%rbp), %esi
	movl	%esi, %eax
	testq	%rax, %rax
	movq	%rax, -48(%rbp)
	je	LBB57_2
	jmp	LBB57_18
LBB57_18:
	movq	-48(%rbp), %rax
	subq	$1, %rax
	movq	%rax, -56(%rbp)
	je	LBB57_4
	jmp	LBB57_3
LBB57_1:
	movq	-16(%rbp), %rdi
	callq	__Unwind_Resume
	ud2
LBB57_2:
	movl	$1114112, -28(%rbp)
	jmp	LBB57_6
LBB57_3:
	ud2
LBB57_4:
	movb	$0, -18(%rbp)
	movl	-36(%rbp), %eax
	movb	$0, -17(%rbp)
	movl	%eax, -24(%rbp)
	movl	-24(%rbp), %edi
Ltmp123:
	callq	__ZN90_$LT$core..str..Chars$LT$$u27$a$GT$$u20$as$u20$core..iter..traits..DoubleEndedIterator$GT$9next_back28_$u7b$$u7b$closure$u7d$$u7d$17hf5934e5970916af6E
Ltmp124:
	movl	%eax, -60(%rbp)
	jmp	LBB57_5
LBB57_5:
	movl	-60(%rbp), %eax
	movl	%eax, -28(%rbp)
LBB57_6:
	testb	$1, -17(%rbp)
	jne	LBB57_12
LBB57_7:
	movl	-40(%rbp), %eax
	movl	%eax, %ecx
	cmpq	$1, %rcx
	je	LBB57_14
	jmp	LBB57_16
LBB57_8:
	testb	$1, -18(%rbp)
	je	LBB57_1
	movb	$0, -18(%rbp)
	jmp	LBB57_1
LBB57_10:
	jmp	LBB57_1
LBB57_11:
	movl	-40(%rbp), %eax
	movl	%eax, %ecx
	cmpq	$1, %rcx
	je	LBB57_8
	jmp	LBB57_10
LBB57_12:
	movb	$0, -17(%rbp)
	jmp	LBB57_7
LBB57_13:
	movl	-28(%rbp), %eax
	addq	$64, %rsp
	popq	%rbp
	retq
LBB57_14:
	testb	$1, -18(%rbp)
	je	LBB57_13
	movb	$0, -18(%rbp)
	jmp	LBB57_13
LBB57_16:
	jmp	LBB57_13
LBB57_17:
Ltmp125:
	movl	%edx, %ecx
	movq	%rax, -16(%rbp)
	movl	%ecx, -8(%rbp)
	jmp	LBB57_11
Lfunc_end6:
	.cfi_endproc
	.section	__TEXT,__gcc_except_tab
	.p2align	2
GCC_except_table57:
Lexception6:
	.byte	255
	.byte	255
	.byte	1
	.uleb128 Lcst_end6-Lcst_begin6
Lcst_begin6:
	.uleb128 Lfunc_begin6-Lfunc_begin6
	.uleb128 Ltmp123-Lfunc_begin6
	.byte	0
	.byte	0
	.uleb128 Ltmp123-Lfunc_begin6
	.uleb128 Ltmp124-Ltmp123
	.uleb128 Ltmp125-Lfunc_begin6
	.byte	0
Lcst_end6:
	.p2align	2

	.section	__TEXT,__text,regular,pure_instructions
	.p2align	4, 0x90
__ZN38_$LT$core..option..Option$LT$T$GT$$GT$3map17h53b28e063363ae22E:
Lfunc_begin7:
	.cfi_startproc
	.cfi_personality 155, _rust_eh_personality
	.cfi_lsda 16, Lexception7
	pushq	%rbp
	.cfi_def_cfa_offset 16
	.cfi_offset %rbp, -16
	movq	%rsp, %rbp
	.cfi_def_cfa_register %rbp
	subq	$64, %rsp
	movl	%edi, -40(%rbp)
	movl	%esi, -36(%rbp)
	movb	$0, -18(%rbp)
	movb	$0, -17(%rbp)
	movb	$1, -18(%rbp)
	movb	$1, -17(%rbp)
	movl	-40(%rbp), %esi
	movl	%esi, %eax
	testq	%rax, %rax
	movq	%rax, -48(%rbp)
	je	LBB58_2
	jmp	LBB58_18
LBB58_18:
	movq	-48(%rbp), %rax
	subq	$1, %rax
	movq	%rax, -56(%rbp)
	je	LBB58_4
	jmp	LBB58_3
LBB58_1:
	movq	-16(%rbp), %rdi
	callq	__Unwind_Resume
	ud2
LBB58_2:
	movl	$1114112, -28(%rbp)
	jmp	LBB58_6
LBB58_3:
	ud2
LBB58_4:
	movb	$0, -18(%rbp)
	movl	-36(%rbp), %eax
	movb	$0, -17(%rbp)
	movl	%eax, -24(%rbp)
	movl	-24(%rbp), %edi
Ltmp126:
	callq	__ZN81_$LT$core..str..Chars$LT$$u27$a$GT$$u20$as$u20$core..iter..iterator..Iterator$GT$4next28_$u7b$$u7b$closure$u7d$$u7d$17hfcdc2cb09e3aec28E
Ltmp127:
	movl	%eax, -60(%rbp)
	jmp	LBB58_5
LBB58_5:
	movl	-60(%rbp), %eax
	movl	%eax, -28(%rbp)
LBB58_6:
	testb	$1, -17(%rbp)
	jne	LBB58_12
LBB58_7:
	movl	-40(%rbp), %eax
	movl	%eax, %ecx
	cmpq	$1, %rcx
	je	LBB58_14
	jmp	LBB58_16
LBB58_8:
	testb	$1, -18(%rbp)
	je	LBB58_1
	movb	$0, -18(%rbp)
	jmp	LBB58_1
LBB58_10:
	jmp	LBB58_1
LBB58_11:
	movl	-40(%rbp), %eax
	movl	%eax, %ecx
	cmpq	$1, %rcx
	je	LBB58_8
	jmp	LBB58_10
LBB58_12:
	movb	$0, -17(%rbp)
	jmp	LBB58_7
LBB58_13:
	movl	-28(%rbp), %eax
	addq	$64, %rsp
	popq	%rbp
	retq
LBB58_14:
	testb	$1, -18(%rbp)
	je	LBB58_13
	movb	$0, -18(%rbp)
	jmp	LBB58_13
LBB58_16:
	jmp	LBB58_13
LBB58_17:
Ltmp128:
	movl	%edx, %ecx
	movq	%rax, -16(%rbp)
	movl	%ecx, -8(%rbp)
	jmp	LBB58_11
Lfunc_end7:
	.cfi_endproc
	.section	__TEXT,__gcc_except_tab
	.p2align	2
GCC_except_table58:
Lexception7:
	.byte	255
	.byte	255
	.byte	1
	.uleb128 Lcst_end7-Lcst_begin7
Lcst_begin7:
	.uleb128 Lfunc_begin7-Lfunc_begin7
	.uleb128 Ltmp126-Lfunc_begin7
	.byte	0
	.byte	0
	.uleb128 Ltmp126-Lfunc_begin7
	.uleb128 Ltmp127-Ltmp126
	.uleb128 Ltmp128-Lfunc_begin7
	.byte	0
Lcst_end7:
	.p2align	2

	.section	__TEXT,__text,regular,pure_instructions
	.p2align	4, 0x90
__ZN38_$LT$core..option..Option$LT$T$GT$$GT$3map17hf141565fcbceef33E:
Lfunc_begin8:
	.cfi_startproc
	.cfi_personality 155, _rust_eh_personality
	.cfi_lsda 16, Lexception8
	pushq	%rbp
	.cfi_def_cfa_offset 16
	.cfi_offset %rbp, -16
	movq	%rsp, %rbp
	.cfi_def_cfa_register %rbp
	subq	$208, %rsp
	movq	%rdi, %rax
	movb	$0, -18(%rbp)
	movb	$0, -17(%rbp)
	movb	$1, -18(%rbp)
	movb	$1, -17(%rbp)
	movq	(%rsi), %rcx
	subq	$2, %rcx
	setne	%r8b
	movzbl	%r8b, %r9d
	movl	%r9d, %r10d
	movq	%rax, -152(%rbp)
	movq	%rdx, -160(%rbp)
	movq	%rsi, -168(%rbp)
	movq	%rdi, -176(%rbp)
	movq	%rcx, -184(%rbp)
	movq	%r10, -192(%rbp)
	je	LBB59_2
	jmp	LBB59_18
LBB59_18:
	movq	-192(%rbp), %rax
	subq	$1, %rax
	movq	%rax, -200(%rbp)
	je	LBB59_4
	jmp	LBB59_3
LBB59_1:
	movq	-16(%rbp), %rdi
	callq	__Unwind_Resume
	ud2
LBB59_2:
	movq	-176(%rbp), %rax
	movq	$0, (%rax)
	jmp	LBB59_6
LBB59_3:
	ud2
LBB59_4:
	movb	$0, -18(%rbp)
	movq	-168(%rbp), %rax
	movq	24(%rax), %rcx
	movq	%rcx, -120(%rbp)
	movq	16(%rax), %rcx
	movq	%rcx, -128(%rbp)
	movq	(%rax), %rcx
	movq	8(%rax), %rdx
	movq	%rdx, -136(%rbp)
	movq	%rcx, -144(%rbp)
	movb	$0, -17(%rbp)
	movq	-120(%rbp), %rcx
	movq	%rcx, -32(%rbp)
	movq	-128(%rbp), %rcx
	movq	%rcx, -40(%rbp)
	movq	-144(%rbp), %rcx
	movq	-136(%rbp), %rdx
	movq	%rdx, -48(%rbp)
	movq	%rcx, -56(%rbp)
	movq	-32(%rbp), %rcx
	movq	%rcx, -64(%rbp)
	movq	-40(%rbp), %rcx
	movq	%rcx, -72(%rbp)
	movq	-56(%rbp), %rcx
	movq	-48(%rbp), %rdx
	movq	%rdx, -80(%rbp)
	movq	%rcx, -88(%rbp)
Ltmp129:
	leaq	-112(%rbp), %rdi
	leaq	-88(%rbp), %rdx
	movq	-160(%rbp), %rsi
	callq	__ZN4core3ops8function5impls80_$LT$impl$u20$core..ops..function..FnOnce$LT$A$GT$$u20$for$u20$$RF$mut$u20$F$GT$9call_once17hc901b0fee5820520E
Ltmp130:
	jmp	LBB59_5
LBB59_5:
	movq	-112(%rbp), %rax
	movq	-176(%rbp), %rcx
	movq	%rax, (%rcx)
	movq	-104(%rbp), %rax
	movq	%rax, 8(%rcx)
	movq	-96(%rbp), %rax
	movq	%rax, 16(%rcx)
LBB59_6:
	testb	$1, -17(%rbp)
	jne	LBB59_12
LBB59_7:
	movl	$1, %eax
	movl	%eax, %ecx
	xorl	%eax, %eax
	movl	%eax, %edx
	movq	-168(%rbp), %rsi
	cmpq	$2, (%rsi)
	cmoveq	%rdx, %rcx
	cmpq	$1, %rcx
	je	LBB59_14
	jmp	LBB59_16
LBB59_8:
	testb	$1, -18(%rbp)
	je	LBB59_1
	movb	$0, -18(%rbp)
	movq	-168(%rbp), %rax
	movq	%rax, %rdi
	callq	__ZN4core3ptr13drop_in_place17hbe53cda7d8f08b87E
	jmp	LBB59_1
LBB59_10:
	movq	-168(%rbp), %rdi
	callq	__ZN4core3ptr13drop_in_place17h9010f0b5b4a0eee2E
	jmp	LBB59_1
LBB59_11:
	movl	$1, %eax
	movl	%eax, %ecx
	xorl	%eax, %eax
	movl	%eax, %edx
	movq	-168(%rbp), %rsi
	cmpq	$2, (%rsi)
	cmoveq	%rdx, %rcx
	cmpq	$1, %rcx
	je	LBB59_8
	jmp	LBB59_10
LBB59_12:
	movb	$0, -17(%rbp)
	jmp	LBB59_7
LBB59_13:
	movq	-152(%rbp), %rax
	addq	$208, %rsp
	popq	%rbp
	retq
LBB59_14:
	testb	$1, -18(%rbp)
	je	LBB59_13
	movb	$0, -18(%rbp)
	movq	-168(%rbp), %rax
	movq	%rax, %rdi
	callq	__ZN4core3ptr13drop_in_place17hbe53cda7d8f08b87E
	jmp	LBB59_13
LBB59_16:
	movq	-168(%rbp), %rdi
	callq	__ZN4core3ptr13drop_in_place17h9010f0b5b4a0eee2E
	jmp	LBB59_13
LBB59_17:
Ltmp131:
	movl	%edx, %ecx
	movq	%rax, -16(%rbp)
	movl	%ecx, -8(%rbp)
	jmp	LBB59_11
Lfunc_end8:
	.cfi_endproc
	.section	__TEXT,__gcc_except_tab
	.p2align	2
GCC_except_table59:
Lexception8:
	.byte	255
	.byte	255
	.byte	1
	.uleb128 Lcst_end8-Lcst_begin8
Lcst_begin8:
	.uleb128 Lfunc_begin8-Lfunc_begin8
	.uleb128 Ltmp129-Lfunc_begin8
	.byte	0
	.byte	0
	.uleb128 Ltmp129-Lfunc_begin8
	.uleb128 Ltmp130-Ltmp129
	.uleb128 Ltmp131-Lfunc_begin8
	.byte	0
	.uleb128 Ltmp130-Lfunc_begin8
	.uleb128 Lfunc_end8-Ltmp130
	.byte	0
	.byte	0
Lcst_end8:
	.p2align	2

	.section	__TEXT,__text,regular,pure_instructions
	.p2align	4, 0x90
__ZN38_$LT$core..option..Option$LT$T$GT$$GT$5ok_or17h007a767aba838c21E:
	.cfi_startproc
	pushq	%rbp
	.cfi_def_cfa_offset 16
	.cfi_offset %rbp, -16
	movq	%rsp, %rbp
	.cfi_def_cfa_register %rbp
	subq	$56, %rsp
	movq	%rdi, -40(%rbp)
	movb	$0, -18(%rbp)
	movb	$0, -17(%rbp)
	movb	$1, -18(%rbp)
	movb	$1, -17(%rbp)
	movq	-40(%rbp), %rdi
	testq	%rdi, %rdi
	setne	%al
	movzbl	%al, %ecx
	movl	%ecx, %edi
	movq	%rdi, -48(%rbp)
	je	LBB60_1
	jmp	LBB60_11
LBB60_11:
	movq	-48(%rbp), %rax
	subq	$1, %rax
	movq	%rax, -56(%rbp)
	je	LBB60_3
	jmp	LBB60_2
LBB60_1:
	movb	$0, -17(%rbp)
	movq	$0, -32(%rbp)
	jmp	LBB60_4
LBB60_2:
	ud2
LBB60_3:
	movb	$0, -18(%rbp)
	movq	-40(%rbp), %rax
	movq	%rax, -32(%rbp)
LBB60_4:
	testb	$1, -17(%rbp)
	jne	LBB60_6
LBB60_5:
	movl	$1, %eax
	movl	%eax, %ecx
	xorl	%eax, %eax
	movl	%eax, %edx
	cmpq	$0, -40(%rbp)
	cmoveq	%rdx, %rcx
	cmpq	$1, %rcx
	je	LBB60_8
	jmp	LBB60_10
LBB60_6:
	movb	$0, -17(%rbp)
	jmp	LBB60_5
LBB60_7:
	movq	-32(%rbp), %rax
	addq	$56, %rsp
	popq	%rbp
	retq
LBB60_8:
	testb	$1, -18(%rbp)
	je	LBB60_7
	movb	$0, -18(%rbp)
	jmp	LBB60_7
LBB60_10:
	jmp	LBB60_7
	.cfi_endproc

	.p2align	4, 0x90
__ZN38_$LT$core..option..Option$LT$T$GT$$GT$5ok_or17h023f66b9a5e38b26E:
	.cfi_startproc
	pushq	%rbp
	.cfi_def_cfa_offset 16
	.cfi_offset %rbp, -16
	movq	%rsp, %rbp
	.cfi_def_cfa_register %rbp
	subq	$48, %rsp
	movl	%edi, -28(%rbp)
	movb	$0, -18(%rbp)
	movb	$0, -17(%rbp)
	movb	$1, -18(%rbp)
	movb	$1, -17(%rbp)
	movl	-28(%rbp), %edi
	subl	$1114112, %edi
	setne	%al
	movzbl	%al, %ecx
	movl	%ecx, %edx
	movl	%edi, -32(%rbp)
	movq	%rdx, -40(%rbp)
	je	LBB61_1
	jmp	LBB61_11
LBB61_11:
	movq	-40(%rbp), %rax
	subq	$1, %rax
	movq	%rax, -48(%rbp)
	je	LBB61_3
	jmp	LBB61_2
LBB61_1:
	movb	$0, -17(%rbp)
	movl	$1114112, -24(%rbp)
	jmp	LBB61_4
LBB61_2:
	ud2
LBB61_3:
	movb	$0, -18(%rbp)
	movl	-28(%rbp), %eax
	movl	%eax, -24(%rbp)
LBB61_4:
	testb	$1, -17(%rbp)
	jne	LBB61_6
LBB61_5:
	movl	$1, %eax
	movl	%eax, %ecx
	xorl	%eax, %eax
	movl	%eax, %edx
	cmpl	$1114112, -28(%rbp)
	cmoveq	%rdx, %rcx
	cmpq	$1, %rcx
	je	LBB61_8
	jmp	LBB61_10
LBB61_6:
	movb	$0, -17(%rbp)
	jmp	LBB61_5
LBB61_7:
	movl	-24(%rbp), %eax
	addq	$48, %rsp
	popq	%rbp
	retq
LBB61_8:
	testb	$1, -18(%rbp)
	je	LBB61_7
	movb	$0, -18(%rbp)
	jmp	LBB61_7
LBB61_10:
	jmp	LBB61_7
	.cfi_endproc

	.p2align	4, 0x90
__ZN38_$LT$core..option..Option$LT$T$GT$$GT$5ok_or17h6f062194106b3641E:
	.cfi_startproc
	pushq	%rbp
	.cfi_def_cfa_offset 16
	.cfi_offset %rbp, -16
	movq	%rsp, %rbp
	.cfi_def_cfa_register %rbp
	subq	$80, %rsp
	movb	%cl, %al
	movq	%rdi, %r8
	movq	%rsi, -40(%rbp)
	movq	%rdx, -32(%rbp)
	movb	$0, -18(%rbp)
	movb	$0, -17(%rbp)
	movb	$1, -18(%rbp)
	movb	$1, -17(%rbp)
	movq	-40(%rbp), %rdx
	testq	%rdx, %rdx
	movq	%rdi, -48(%rbp)
	movq	%r8, -56(%rbp)
	movb	%al, -57(%rbp)
	movq	%rdx, -72(%rbp)
	je	LBB62_1
	jmp	LBB62_11
LBB62_11:
	movq	-72(%rbp), %rax
	subq	$1, %rax
	movq	%rax, -80(%rbp)
	je	LBB62_3
	jmp	LBB62_2
LBB62_1:
	movb	$0, -17(%rbp)
	movb	-57(%rbp), %al
	andb	$1, %al
	movq	-48(%rbp), %rcx
	movb	%al, 1(%rcx)
	movb	$1, (%rcx)
	jmp	LBB62_4
LBB62_2:
	ud2
LBB62_3:
	movb	$0, -18(%rbp)
	movq	-32(%rbp), %rax
	movq	-48(%rbp), %rcx
	movq	%rax, 8(%rcx)
	movb	$0, (%rcx)
LBB62_4:
	testb	$1, -17(%rbp)
	jne	LBB62_6
LBB62_5:
	cmpq	$1, -40(%rbp)
	je	LBB62_8
	jmp	LBB62_10
LBB62_6:
	movb	$0, -17(%rbp)
	jmp	LBB62_5
LBB62_7:
	movq	-56(%rbp), %rax
	addq	$80, %rsp
	popq	%rbp
	retq
LBB62_8:
	testb	$1, -18(%rbp)
	je	LBB62_7
	movb	$0, -18(%rbp)
	jmp	LBB62_7
LBB62_10:
	jmp	LBB62_7
	.cfi_endproc

	.p2align	4, 0x90
__ZN38_$LT$core..option..Option$LT$T$GT$$GT$5ok_or17hacf390f632c42e4aE:
	.cfi_startproc
	pushq	%rbp
	.cfi_def_cfa_offset 16
	.cfi_offset %rbp, -16
	movq	%rsp, %rbp
	.cfi_def_cfa_register %rbp
	subq	$72, %rsp
	movq	%rdi, -56(%rbp)
	movq	%rsi, -48(%rbp)
	movb	$0, -18(%rbp)
	movb	$0, -17(%rbp)
	movb	$1, -18(%rbp)
	movb	$1, -17(%rbp)
	movq	-56(%rbp), %rsi
	testq	%rsi, %rsi
	movq	%rsi, -64(%rbp)
	je	LBB63_1
	jmp	LBB63_11
LBB63_11:
	movq	-64(%rbp), %rax
	subq	$1, %rax
	movq	%rax, -72(%rbp)
	je	LBB63_3
	jmp	LBB63_2
LBB63_1:
	movb	$0, -17(%rbp)
	movq	$1, -40(%rbp)
	jmp	LBB63_4
LBB63_2:
	ud2
LBB63_3:
	movb	$0, -18(%rbp)
	movq	-48(%rbp), %rax
	movq	%rax, -32(%rbp)
	movq	$0, -40(%rbp)
LBB63_4:
	testb	$1, -17(%rbp)
	jne	LBB63_6
LBB63_5:
	cmpq	$1, -56(%rbp)
	je	LBB63_8
	jmp	LBB63_10
LBB63_6:
	movb	$0, -17(%rbp)
	jmp	LBB63_5
LBB63_7:
	movq	-40(%rbp), %rax
	movq	-32(%rbp), %rdx
	addq	$72, %rsp
	popq	%rbp
	retq
LBB63_8:
	testb	$1, -18(%rbp)
	je	LBB63_7
	movb	$0, -18(%rbp)
	jmp	LBB63_7
LBB63_10:
	jmp	LBB63_7
	.cfi_endproc

	.p2align	4, 0x90
__ZN38_$LT$core..option..Option$LT$T$GT$$GT$5ok_or17hf5bc0e001d05791cE:
	.cfi_startproc
	pushq	%rbp
	.cfi_def_cfa_offset 16
	.cfi_offset %rbp, -16
	movq	%rsp, %rbp
	.cfi_def_cfa_register %rbp
	subq	$56, %rsp
	movq	%rdi, -40(%rbp)
	movb	$0, -18(%rbp)
	movb	$0, -17(%rbp)
	movb	$1, -18(%rbp)
	movb	$1, -17(%rbp)
	movq	-40(%rbp), %rdi
	testq	%rdi, %rdi
	setne	%al
	movzbl	%al, %ecx
	movl	%ecx, %edi
	movq	%rdi, -48(%rbp)
	je	LBB64_1
	jmp	LBB64_11
LBB64_11:
	movq	-48(%rbp), %rax
	subq	$1, %rax
	movq	%rax, -56(%rbp)
	je	LBB64_3
	jmp	LBB64_2
LBB64_1:
	movb	$0, -17(%rbp)
	movq	$0, -32(%rbp)
	jmp	LBB64_4
LBB64_2:
	ud2
LBB64_3:
	movb	$0, -18(%rbp)
	movq	-40(%rbp), %rax
	movq	%rax, -32(%rbp)
LBB64_4:
	testb	$1, -17(%rbp)
	jne	LBB64_6
LBB64_5:
	movl	$1, %eax
	movl	%eax, %ecx
	xorl	%eax, %eax
	movl	%eax, %edx
	cmpq	$0, -40(%rbp)
	cmoveq	%rdx, %rcx
	cmpq	$1, %rcx
	je	LBB64_8
	jmp	LBB64_10
LBB64_6:
	movb	$0, -17(%rbp)
	jmp	LBB64_5
LBB64_7:
	movq	-32(%rbp), %rax
	addq	$56, %rsp
	popq	%rbp
	retq
LBB64_8:
	testb	$1, -18(%rbp)
	je	LBB64_7
	movb	$0, -18(%rbp)
	jmp	LBB64_7
LBB64_10:
	jmp	LBB64_7
	.cfi_endproc

	.p2align	4, 0x90
__ZN3std10sys_common5mutex5Mutex10raw_unlock17he3436de9d87004beE:
	.cfi_startproc
	pushq	%rbp
	.cfi_def_cfa_offset 16
	.cfi_offset %rbp, -16
	movq	%rsp, %rbp
	.cfi_def_cfa_register %rbp
	callq	__ZN3std3sys4unix5mutex5Mutex6unlock17h358a2fc4df3553faE
	popq	%rbp
	retq
	.cfi_endproc

	.p2align	4, 0x90
__ZN3std10sys_common5mutex5Mutex7destroy17ha70bfe478a78b50aE:
	.cfi_startproc
	pushq	%rbp
	.cfi_def_cfa_offset 16
	.cfi_offset %rbp, -16
	movq	%rsp, %rbp
	.cfi_def_cfa_register %rbp
	callq	__ZN3std3sys4unix5mutex5Mutex7destroy17h060f000437f21544E
	popq	%rbp
	retq
	.cfi_endproc

	.p2align	4, 0x90
__ZN3std10sys_common6poison4Flag4done17h7e7e55c9c2fea5b1E:
	.cfi_startproc
	pushq	%rbp
	.cfi_def_cfa_offset 16
	.cfi_offset %rbp, -16
	movq	%rsp, %rbp
	.cfi_def_cfa_register %rbp
	subq	$32, %rsp
	movb	(%rsi), %al
	xorb	$-1, %al
	testb	$1, %al
	movq	%rdi, -16(%rbp)
	jne	LBB67_3
	jmp	LBB67_2
LBB67_1:
	movb	$1, -2(%rbp)
	jmp	LBB67_4
LBB67_2:
	movb	$0, -2(%rbp)
	jmp	LBB67_4
LBB67_3:
	callq	__ZN3std6thread9panicking17hcd6269c27b3fa957E
	movb	%al, -17(%rbp)
	jmp	LBB67_5
LBB67_4:
	testb	$1, -2(%rbp)
	jne	LBB67_6
	jmp	LBB67_8
LBB67_5:
	movb	-17(%rbp), %al
	testb	$1, %al
	jne	LBB67_1
	jmp	LBB67_2
LBB67_6:
	movb	$0, -1(%rbp)
	movq	-16(%rbp), %rdi
	movl	$1, %esi
	movzbl	-1(%rbp), %edx
	callq	__ZN4core4sync6atomic10AtomicBool5store17h767b9dca8a4608a9E
	jmp	LBB67_8
LBB67_8:
	addq	$32, %rsp
	popq	%rbp
	retq
	.cfi_endproc

	.p2align	4, 0x90
__ZN3std2io10read_until17h1336ebd21a7e9585E:
Lfunc_begin9:
	.cfi_startproc
	.cfi_personality 155, _rust_eh_personality
	.cfi_lsda 16, Lexception9
	pushq	%rbp
	.cfi_def_cfa_offset 16
	.cfi_offset %rbp, -16
	movq	%rsp, %rbp
	.cfi_def_cfa_register %rbp
	subq	$288, %rsp
	movb	%dl, %al
	movq	%rdi, %r8
	movq	$0, -144(%rbp)
	movq	%r8, -152(%rbp)
	movq	%rsi, -160(%rbp)
	movq	%rcx, -168(%rbp)
	movb	%al, -169(%rbp)
	movq	%rdi, -184(%rbp)
	jmp	LBB68_2
LBB68_1:
	movq	-16(%rbp), %rdi
	callq	__Unwind_Resume
	ud2
LBB68_2:
	leaq	-120(%rbp), %rdi
	movq	-160(%rbp), %rsi
	callq	__ZN76_$LT$std..io..stdio..StdinLock$LT$$u27$a$GT$$u20$as$u20$std..io..BufRead$GT$8fill_buf17hed13c53283002b65E
	movq	-120(%rbp), %rax
	testq	%rax, %rax
	movq	%rax, -192(%rbp)
	je	LBB68_6
	jmp	LBB68_33
LBB68_33:
	movq	-192(%rbp), %rax
	subq	$1, %rax
	movq	%rax, -200(%rbp)
	je	LBB68_7
	jmp	LBB68_5
LBB68_4:
	movq	-112(%rbp), %rax
	movq	%rax, -88(%rbp)
	movq	-104(%rbp), %rax
	movq	%rax, -80(%rbp)
	movq	-88(%rbp), %rax
	movq	%rax, -64(%rbp)
	movq	-80(%rbp), %rax
	movq	%rax, -56(%rbp)
	movq	-64(%rbp), %rax
	movq	-184(%rbp), %rcx
	movq	%rax, 8(%rcx)
	movq	-56(%rbp), %rax
	movq	%rax, 16(%rcx)
	movq	$1, (%rcx)
	cmpq	$1, -120(%rbp)
	je	LBB68_30
	jmp	LBB68_31
LBB68_5:
	ud2
LBB68_6:
	movq	-112(%rbp), %rax
	movq	-104(%rbp), %rcx
	leaq	-120(%rbp), %rdi
	movq	%rax, -208(%rbp)
	movq	%rcx, -216(%rbp)
	callq	__ZN4core3ptr13drop_in_place17h2e32ad48e4ecab84E
	jmp	LBB68_14
LBB68_7:
	leaq	-112(%rbp), %rax
	movq	%rax, -96(%rbp)
	movq	-96(%rbp), %rdi
Ltmp132:
	callq	__ZN3std2io5error5Error4kind17h908c89ee0459da6eE
Ltmp133:
	movb	%al, -217(%rbp)
	jmp	LBB68_8
LBB68_8:
	movb	-217(%rbp), %al
	movb	%al, -65(%rbp)
Ltmp134:
	leaq	l___unnamed_2(%rip), %rsi
	leaq	-65(%rbp), %rdi
	callq	__ZN66_$LT$std..io..error..ErrorKind$u20$as$u20$core..cmp..PartialEq$GT$2eq17h54237d0416a72defE
Ltmp135:
	movb	%al, -218(%rbp)
	jmp	LBB68_10
LBB68_9:
	leaq	-120(%rbp), %rdi
	callq	__ZN4core3ptr13drop_in_place17h2e32ad48e4ecab84E
	jmp	LBB68_1
LBB68_10:
	movb	-218(%rbp), %al
	testb	$1, %al
	jne	LBB68_11
	jmp	LBB68_4
LBB68_11:
	leaq	-120(%rbp), %rdi
	callq	__ZN4core3ptr13drop_in_place17h2e32ad48e4ecab84E
	jmp	LBB68_2
LBB68_13:
	movq	-152(%rbp), %rax
	addq	$288, %rsp
	popq	%rbp
	retq
LBB68_14:
	movb	-169(%rbp), %al
	movzbl	%al, %edi
	movq	-208(%rbp), %rsi
	movq	-216(%rbp), %rdx
	callq	__ZN3std6memchr6memchr17hf2996e41c9fc871bE
	movq	%rdx, -40(%rbp)
	movq	%rax, -48(%rbp)
	movq	-48(%rbp), %rax
	testq	%rax, %rax
	movq	%rax, -232(%rbp)
	je	LBB68_16
	jmp	LBB68_34
LBB68_34:
	movq	-232(%rbp), %rax
	subq	$1, %rax
	movq	%rax, -240(%rbp)
	je	LBB68_17
	jmp	LBB68_5
LBB68_16:
	movq	-168(%rbp), %rdi
	movq	-208(%rbp), %rsi
	movq	-216(%rbp), %rdx
	callq	__ZN33_$LT$alloc..vec..Vec$LT$T$GT$$GT$17extend_from_slice17h5315c65564295670E
	jmp	LBB68_21
LBB68_17:
	movq	-40(%rbp), %rax
	movq	%rax, %rcx
	addq	$1, %rcx
	movq	%rcx, -32(%rbp)
	movq	-32(%rbp), %rdx
	movq	-208(%rbp), %rdi
	movq	-216(%rbp), %rsi
	movq	%rax, -248(%rbp)
	callq	__ZN4core5slice74_$LT$impl$u20$core..ops..index..Index$LT$I$GT$$u20$for$u20$$u5b$T$u5d$$GT$5index17h314b84ff520bac23E
	movq	%rax, -256(%rbp)
	movq	%rdx, -264(%rbp)
	jmp	LBB68_19
LBB68_18:
	movb	-136(%rbp), %al
	movq	-128(%rbp), %rcx
	movq	-160(%rbp), %rdi
	movq	%rcx, %rsi
	movb	%al, -265(%rbp)
	movq	%rcx, -280(%rbp)
	callq	__ZN76_$LT$std..io..stdio..StdinLock$LT$$u27$a$GT$$u20$as$u20$std..io..BufRead$GT$7consume17hb2d6177a50b7bb78E
	jmp	LBB68_23
LBB68_19:
	movq	-168(%rbp), %rdi
	movq	-256(%rbp), %rsi
	movq	-264(%rbp), %rdx
	callq	__ZN33_$LT$alloc..vec..Vec$LT$T$GT$$GT$17extend_from_slice17h5315c65564295670E
	movq	-248(%rbp), %rax
	addq	$1, %rax
	movb	$1, -136(%rbp)
	movq	%rax, -128(%rbp)
	jmp	LBB68_18
LBB68_21:
	movq	-208(%rbp), %rdi
	movq	-216(%rbp), %rsi
	callq	__ZN4core5slice29_$LT$impl$u20$$u5b$T$u5d$$GT$3len17h24a66b66aa57f6d3E
	movq	%rax, -288(%rbp)
	movb	$0, -136(%rbp)
	movq	-288(%rbp), %rax
	movq	%rax, -128(%rbp)
	jmp	LBB68_18
LBB68_23:
	movq	-280(%rbp), %rax
	addq	-144(%rbp), %rax
	movq	%rax, -144(%rbp)
	movb	-265(%rbp), %cl
	testb	$1, %cl
	jne	LBB68_24
	jmp	LBB68_26
LBB68_24:
	movb	$1, -17(%rbp)
	jmp	LBB68_27
LBB68_25:
	movb	$0, -17(%rbp)
	jmp	LBB68_27
LBB68_26:
	movq	-280(%rbp), %rax
	cmpq	$0, %rax
	je	LBB68_24
	jmp	LBB68_25
LBB68_27:
	testb	$1, -17(%rbp)
	je	LBB68_29
	movq	-144(%rbp), %rax
	movq	-184(%rbp), %rcx
	movq	%rax, 8(%rcx)
	movq	$0, (%rcx)
	jmp	LBB68_13
LBB68_29:
	jmp	LBB68_2
LBB68_30:
	jmp	LBB68_13
LBB68_31:
	leaq	-120(%rbp), %rdi
	callq	__ZN4core3ptr13drop_in_place17h2e32ad48e4ecab84E
	jmp	LBB68_30
LBB68_32:
Ltmp136:
	movl	%edx, %ecx
	movq	%rax, -16(%rbp)
	movl	%ecx, -8(%rbp)
	jmp	LBB68_9
Lfunc_end9:
	.cfi_endproc
	.section	__TEXT,__gcc_except_tab
	.p2align	2
GCC_except_table68:
Lexception9:
	.byte	255
	.byte	255
	.byte	1
	.uleb128 Lcst_end9-Lcst_begin9
Lcst_begin9:
	.uleb128 Lfunc_begin9-Lfunc_begin9
	.uleb128 Ltmp132-Lfunc_begin9
	.byte	0
	.byte	0
	.uleb128 Ltmp132-Lfunc_begin9
	.uleb128 Ltmp135-Ltmp132
	.uleb128 Ltmp136-Lfunc_begin9
	.byte	0
	.uleb128 Ltmp135-Lfunc_begin9
	.uleb128 Lfunc_end9-Ltmp135
	.byte	0
	.byte	0
Lcst_end9:
	.p2align	2

	.section	__TEXT,__text,regular,pure_instructions
	.p2align	4, 0x90
__ZN3std2io16append_to_string17h171659e3cddfbd53E:
Lfunc_begin10:
	.cfi_startproc
	.cfi_personality 155, _rust_eh_personality
	.cfi_lsda 16, Lexception10
	pushq	%rbp
	.cfi_def_cfa_offset 16
	.cfi_offset %rbp, -16
	movq	%rsp, %rbp
	.cfi_def_cfa_register %rbp
	subq	$208, %rsp
	movq	%rdi, %rax
	movb	$0, -17(%rbp)
	movb	$0, -18(%rbp)
	movb	$1, -18(%rbp)
Ltmp137:
	movq	%rdi, -136(%rbp)
	movq	%rsi, %rdi
	movq	%rax, -144(%rbp)
	movq	%rdx, -152(%rbp)
	movq	%rsi, -160(%rbp)
	callq	__ZN5alloc6string6String3len17hce6f859edcb25f25E
Ltmp138:
	movq	%rax, -168(%rbp)
	jmp	LBB69_2
LBB69_1:
	movq	-16(%rbp), %rdi
	callq	__Unwind_Resume
	ud2
LBB69_2:
Ltmp139:
	movq	-160(%rbp), %rdi
	callq	__ZN5alloc6string6String10as_mut_vec17h200042ac151455d4E
Ltmp140:
	movq	%rax, -176(%rbp)
	jmp	LBB69_4
LBB69_3:
	testb	$1, -18(%rbp)
	jne	LBB69_17
	jmp	LBB69_1
LBB69_4:
	movq	-176(%rbp), %rax
	movq	%rax, -128(%rbp)
	movq	-168(%rbp), %rcx
	movq	%rcx, -120(%rbp)
	movb	$0, -18(%rbp)
	movq	-128(%rbp), %rdx
	movq	%rdx, -88(%rbp)
	movq	-88(%rbp), %rdx
Ltmp141:
	leaq	-112(%rbp), %rdi
	movq	-152(%rbp), %rsi
	callq	__ZN3std2io7BufRead9read_line28_$u7b$$u7b$closure$u7d$$u7d$17hca262db7ad07462fE
Ltmp142:
	jmp	LBB69_5
LBB69_5:
	movb	$1, -17(%rbp)
	movq	-128(%rbp), %rdi
	movq	-120(%rbp), %rax
	movq	%rax, -56(%rbp)
	movq	-56(%rbp), %rsi
Ltmp144:
	callq	__ZN77_$LT$alloc..vec..Vec$LT$T$GT$$u20$as$u20$core..ops..index..Index$LT$I$GT$$GT$5index17hef8aeb2adbec639dE
Ltmp145:
	movq	%rdx, -184(%rbp)
	movq	%rax, -192(%rbp)
	jmp	LBB69_7
LBB69_6:
	leaq	-128(%rbp), %rdi
	callq	__ZN4core3ptr13drop_in_place17he9da013e1a226f8aE
	jmp	LBB69_3
LBB69_7:
Ltmp146:
	leaq	-80(%rbp), %rdi
	movq	-192(%rbp), %rsi
	movq	-184(%rbp), %rdx
	callq	__ZN4core3str9from_utf817h0f8a3e32b621814cE
Ltmp147:
	jmp	LBB69_9
LBB69_8:
	testb	$1, -17(%rbp)
	jne	LBB69_18
	jmp	LBB69_6
LBB69_9:
Ltmp148:
	leaq	-80(%rbp), %rdi
	callq	__ZN47_$LT$core..result..Result$LT$T$C$$u20$E$GT$$GT$6is_err17h510e231b8ff7b558E
Ltmp149:
	movb	%al, -193(%rbp)
	jmp	LBB69_10
LBB69_10:
	movb	-193(%rbp), %al
	testb	$1, %al
	jne	LBB69_11
	jmp	LBB69_12
LBB69_11:
	movb	$0, -17(%rbp)
	movq	-96(%rbp), %rax
	movq	%rax, -32(%rbp)
	movq	-112(%rbp), %rax
	movq	-104(%rbp), %rcx
	movq	%rcx, -40(%rbp)
	movq	%rax, -48(%rbp)
Ltmp152:
	leaq	-48(%rbp), %rsi
	movq	-136(%rbp), %rdi
	callq	__ZN47_$LT$core..result..Result$LT$T$C$$u20$E$GT$$GT$8and_then17h81b3ca7524688b72E
Ltmp153:
	jmp	LBB69_13
LBB69_12:
	movq	-128(%rbp), %rdi
Ltmp150:
	callq	__ZN33_$LT$alloc..vec..Vec$LT$T$GT$$GT$3len17h06754c61dda3b317E
Ltmp151:
	movq	%rax, -208(%rbp)
	jmp	LBB69_14
LBB69_13:
	jmp	LBB69_15
LBB69_14:
	movq	-208(%rbp), %rax
	movq	%rax, -120(%rbp)
	movb	$0, -17(%rbp)
	movq	-112(%rbp), %rcx
	movq	-136(%rbp), %rdx
	movq	%rcx, (%rdx)
	movq	-104(%rbp), %rcx
	movq	%rcx, 8(%rdx)
	movq	-96(%rbp), %rcx
	movq	%rcx, 16(%rdx)
LBB69_15:
	movb	$0, -17(%rbp)
Ltmp155:
	leaq	-128(%rbp), %rdi
	callq	__ZN4core3ptr13drop_in_place17he9da013e1a226f8aE
Ltmp156:
	jmp	LBB69_16
LBB69_16:
	movq	-144(%rbp), %rax
	addq	$208, %rsp
	popq	%rbp
	retq
LBB69_17:
	movb	$0, -18(%rbp)
	jmp	LBB69_1
LBB69_18:
	movb	$0, -17(%rbp)
	leaq	-112(%rbp), %rdi
	callq	__ZN4core3ptr13drop_in_place17h5c79911b4d22871dE
	jmp	LBB69_6
LBB69_19:
Ltmp157:
	movl	%edx, %ecx
	movq	%rax, -16(%rbp)
	movl	%ecx, -8(%rbp)
	jmp	LBB69_3
LBB69_20:
Ltmp143:
	movl	%edx, %ecx
	movq	%rax, -16(%rbp)
	movl	%ecx, -8(%rbp)
	jmp	LBB69_6
LBB69_21:
Ltmp154:
	movl	%edx, %ecx
	movq	%rax, -16(%rbp)
	movl	%ecx, -8(%rbp)
	jmp	LBB69_8
Lfunc_end10:
	.cfi_endproc
	.section	__TEXT,__gcc_except_tab
	.p2align	2
GCC_except_table69:
Lexception10:
	.byte	255
	.byte	255
	.byte	1
	.uleb128 Lcst_end10-Lcst_begin10
Lcst_begin10:
	.uleb128 Ltmp137-Lfunc_begin10
	.uleb128 Ltmp138-Ltmp137
	.uleb128 Ltmp157-Lfunc_begin10
	.byte	0
	.uleb128 Ltmp138-Lfunc_begin10
	.uleb128 Ltmp139-Ltmp138
	.byte	0
	.byte	0
	.uleb128 Ltmp139-Lfunc_begin10
	.uleb128 Ltmp140-Ltmp139
	.uleb128 Ltmp157-Lfunc_begin10
	.byte	0
	.uleb128 Ltmp141-Lfunc_begin10
	.uleb128 Ltmp142-Ltmp141
	.uleb128 Ltmp143-Lfunc_begin10
	.byte	0
	.uleb128 Ltmp144-Lfunc_begin10
	.uleb128 Ltmp145-Ltmp144
	.uleb128 Ltmp154-Lfunc_begin10
	.byte	0
	.uleb128 Ltmp145-Lfunc_begin10
	.uleb128 Ltmp146-Ltmp145
	.byte	0
	.byte	0
	.uleb128 Ltmp146-Lfunc_begin10
	.uleb128 Ltmp151-Ltmp146
	.uleb128 Ltmp154-Lfunc_begin10
	.byte	0
	.uleb128 Ltmp155-Lfunc_begin10
	.uleb128 Ltmp156-Ltmp155
	.uleb128 Ltmp157-Lfunc_begin10
	.byte	0
	.uleb128 Ltmp156-Lfunc_begin10
	.uleb128 Lfunc_end10-Ltmp156
	.byte	0
	.byte	0
Lcst_end10:
	.p2align	2

	.section	__TEXT,__text,regular,pure_instructions
	.p2align	4, 0x90
__ZN3std2io16append_to_string28_$u7b$$u7b$closure$u7d$$u7d$17hbb74c82b477f0169E:
	.cfi_startproc
	pushq	%rbp
	.cfi_def_cfa_offset 16
	.cfi_offset %rbp, -16
	movq	%rsp, %rbp
	.cfi_def_cfa_register %rbp
	subq	$48, %rsp
	movq	%rdi, %rax
	leaq	l___unnamed_3(%rip), %rcx
	movl	$34, %edx
	movl	%edx, %esi
	movb	$12, -1(%rbp)
	leaq	-24(%rbp), %r8
	movq	%rdi, -32(%rbp)
	movq	%r8, %rdi
	movzbl	-1(%rbp), %edx
	movq	%rsi, -40(%rbp)
	movl	%edx, %esi
	movq	%rcx, %rdx
	movq	-40(%rbp), %rcx
	movq	%rax, -48(%rbp)
	callq	__ZN3std2io5error5Error3new17he6c967b41bf58081E
	movq	-24(%rbp), %rax
	movq	-32(%rbp), %rcx
	movq	%rax, 8(%rcx)
	movq	-16(%rbp), %rax
	movq	%rax, 16(%rcx)
	movq	$1, (%rcx)
	movq	-48(%rbp), %rax
	addq	$48, %rsp
	popq	%rbp
	retq
	.cfi_endproc

	.p2align	4, 0x90
__ZN3std2io5error5Error3new17he6c967b41bf58081E:
	.cfi_startproc
	pushq	%rbp
	.cfi_def_cfa_offset 16
	.cfi_offset %rbp, -16
	movq	%rsp, %rbp
	.cfi_def_cfa_register %rbp
	subq	$48, %rsp
	movb	%sil, %al
	movq	%rdi, %r8
	movq	%rdi, -8(%rbp)
	movq	%rdx, %rdi
	movq	%rcx, %rsi
	movq	%r8, -16(%rbp)
	movb	%al, -17(%rbp)
	callq	__ZN50_$LT$T$u20$as$u20$core..convert..Into$LT$U$GT$$GT$4into17h0d49747ad1ffb3ffE
	movq	%rax, -32(%rbp)
	movq	%rdx, -40(%rbp)
	movq	-8(%rbp), %rdi
	movb	-17(%rbp), %al
	movzbl	%al, %esi
	movq	-32(%rbp), %rdx
	movq	-40(%rbp), %rcx
	callq	__ZN3std2io5error5Error4_new17h986f46ac447bd2ccE
	movq	-16(%rbp), %rax
	addq	$48, %rsp
	popq	%rbp
	retq
	.cfi_endproc

	.p2align	4, 0x90
__ZN3std2io7BufRead5lines17h42f9dcd394fdf1ecE:
	.cfi_startproc
	pushq	%rbp
	.cfi_def_cfa_offset 16
	.cfi_offset %rbp, -16
	movq	%rsp, %rbp
	.cfi_def_cfa_register %rbp
	subq	$16, %rsp
	movb	%sil, %al
	movq	%rdi, -16(%rbp)
	andb	$1, %al
	movb	%al, -8(%rbp)
	movq	-16(%rbp), %rax
	movb	-8(%rbp), %dl
	addq	$16, %rsp
	popq	%rbp
	retq
	.cfi_endproc

	.p2align	4, 0x90
__ZN3std2io7BufRead9read_line17h1071fa5e28101e7dE:
	.cfi_startproc
	pushq	%rbp
	.cfi_def_cfa_offset 16
	.cfi_offset %rbp, -16
	movq	%rsp, %rbp
	.cfi_def_cfa_register %rbp
	subq	$32, %rsp
	movq	%rdi, %rax
	movq	%rsi, -16(%rbp)
	leaq	-16(%rbp), %rsi
	movq	%rsi, -8(%rbp)
	movq	-8(%rbp), %rsi
	movq	%rsi, -24(%rbp)
	movq	%rdx, %rsi
	movq	-24(%rbp), %rdx
	movq	%rax, -32(%rbp)
	callq	__ZN3std2io16append_to_string17h171659e3cddfbd53E
	movq	-32(%rbp), %rax
	addq	$32, %rsp
	popq	%rbp
	retq
	.cfi_endproc

	.p2align	4, 0x90
__ZN3std2io7BufRead9read_line28_$u7b$$u7b$closure$u7d$$u7d$17hca262db7ad07462fE:
	.cfi_startproc
	pushq	%rbp
	.cfi_def_cfa_offset 16
	.cfi_offset %rbp, -16
	movq	%rsp, %rbp
	.cfi_def_cfa_register %rbp
	subq	$16, %rsp
	movq	%rdi, %rax
	movq	(%rsi), %rsi
	movl	$10, %ecx
	movq	%rdx, -8(%rbp)
	movl	%ecx, %edx
	movq	-8(%rbp), %rcx
	movq	%rax, -16(%rbp)
	callq	__ZN3std2io10read_until17h1336ebd21a7e9585E
	movq	-16(%rbp), %rax
	addq	$16, %rsp
	popq	%rbp
	retq
	.cfi_endproc

	.private_extern	__ZN3std2rt10lang_start17h1b7e7881049ae502E
	.globl	__ZN3std2rt10lang_start17h1b7e7881049ae502E
	.p2align	4, 0x90
__ZN3std2rt10lang_start17h1b7e7881049ae502E:
	.cfi_startproc
	pushq	%rbp
	.cfi_def_cfa_offset 16
	.cfi_offset %rbp, -16
	movq	%rsp, %rbp
	.cfi_def_cfa_register %rbp
	subq	$32, %rsp
	leaq	l___unnamed_4(%rip), %rax
	movq	%rdi, -8(%rbp)
	leaq	-8(%rbp), %rdi
	movq	%rsi, -16(%rbp)
	movq	%rax, %rsi
	movq	-16(%rbp), %rax
	movq	%rdx, -24(%rbp)
	movq	%rax, %rdx
	movq	-24(%rbp), %rcx
	callq	__ZN3std2rt19lang_start_internal17h7d0f1ce4d4ec6d26E
	movq	%rax, -32(%rbp)
	movq	-32(%rbp), %rax
	addq	$32, %rsp
	popq	%rbp
	retq
	.cfi_endproc

	.p2align	4, 0x90
__ZN3std2rt10lang_start28_$u7b$$u7b$closure$u7d$$u7d$17h5aa5970726d2f95bE:
	.cfi_startproc
	pushq	%rbp
	.cfi_def_cfa_offset 16
	.cfi_offset %rbp, -16
	movq	%rsp, %rbp
	.cfi_def_cfa_register %rbp
	subq	$16, %rsp
	callq	*(%rdi)
	callq	__ZN54_$LT$$LP$$RP$$u20$as$u20$std..process..Termination$GT$6report17hf12bef110783ca9bE
	movl	%eax, -4(%rbp)
	movl	-4(%rbp), %eax
	addq	$16, %rsp
	popq	%rbp
	retq
	.cfi_endproc

	.section	__TEXT,__literal16,16byte_literals
	.p2align	4
LCPI77_0:
	.long	2147483647
	.long	2147483647
	.long	2147483647
	.long	2147483647
	.section	__TEXT,__text,regular,pure_instructions
	.p2align	4, 0x90
__ZN3std3f3221_$LT$impl$u20$f32$GT$3abs17h82c8b2591a235db3E:
	.cfi_startproc
	pushq	%rbp
	.cfi_def_cfa_offset 16
	.cfi_offset %rbp, -16
	movq	%rsp, %rbp
	.cfi_def_cfa_register %rbp
	pushq	%rax
	movaps	LCPI77_0(%rip), %xmm1
	pand	%xmm1, %xmm0
	movss	%xmm0, -4(%rbp)
	movss	-4(%rbp), %xmm0
	movss	%xmm0, -8(%rbp)
	movss	-8(%rbp), %xmm0
	addq	$8, %rsp
	popq	%rbp
	retq
	.cfi_endproc

	.p2align	4, 0x90
__ZN3std3f3221_$LT$impl$u20$f32$GT$4powf17h34b275b501e86627E:
	.cfi_startproc
	pushq	%rbp
	.cfi_def_cfa_offset 16
	.cfi_offset %rbp, -16
	movq	%rsp, %rbp
	.cfi_def_cfa_register %rbp
	subq	$16, %rsp
	callq	_powf
	movss	%xmm0, -4(%rbp)
	movss	-4(%rbp), %xmm0
	movss	%xmm0, -8(%rbp)
	movss	-8(%rbp), %xmm0
	addq	$16, %rsp
	popq	%rbp
	retq
	.cfi_endproc

	.p2align	4, 0x90
__ZN3std3sys4unix5mutex5Mutex6unlock17h358a2fc4df3553faE:
	.cfi_startproc
	pushq	%rbp
	.cfi_def_cfa_offset 16
	.cfi_offset %rbp, -16
	movq	%rsp, %rbp
	.cfi_def_cfa_register %rbp
	subq	$16, %rsp
	callq	__ZN40_$LT$core..cell..UnsafeCell$LT$T$GT$$GT$3get17h4ac446762ae3391fE
	movq	%rax, -8(%rbp)
	movq	-8(%rbp), %rdi
	callq	_pthread_mutex_unlock
	movl	%eax, -12(%rbp)
	addq	$16, %rsp
	popq	%rbp
	retq
	.cfi_endproc

	.p2align	4, 0x90
__ZN3std3sys4unix5mutex5Mutex7destroy17h060f000437f21544E:
	.cfi_startproc
	pushq	%rbp
	.cfi_def_cfa_offset 16
	.cfi_offset %rbp, -16
	movq	%rsp, %rbp
	.cfi_def_cfa_register %rbp
	subq	$16, %rsp
	callq	__ZN40_$LT$core..cell..UnsafeCell$LT$T$GT$$GT$3get17h4ac446762ae3391fE
	movq	%rax, -8(%rbp)
	movq	-8(%rbp), %rdi
	callq	_pthread_mutex_destroy
	movl	%eax, -12(%rbp)
	addq	$16, %rsp
	popq	%rbp
	retq
	.cfi_endproc

	.p2align	4, 0x90
__ZN3std3sys4unix7process14process_common8ExitCode6as_i3217h9d509fadd64e560bE:
	.cfi_startproc
	pushq	%rbp
	.cfi_def_cfa_offset 16
	.cfi_offset %rbp, -16
	movq	%rsp, %rbp
	.cfi_def_cfa_register %rbp
	movzbl	(%rdi), %eax
	popq	%rbp
	retq
	.cfi_endproc

	.p2align	4, 0x90
__ZN3std6memchr6memchr17hf2996e41c9fc871bE:
	.cfi_startproc
	pushq	%rbp
	.cfi_def_cfa_offset 16
	.cfi_offset %rbp, -16
	movq	%rsp, %rbp
	.cfi_def_cfa_register %rbp
	subq	$16, %rsp
	movb	%dil, %al
	movzbl	%al, %edi
	callq	__ZN3std3sys4unix6memchr6memchr17h92ab90f024352312E
	movq	%rax, -8(%rbp)
	movq	%rdx, -16(%rbp)
	movq	-8(%rbp), %rax
	movq	-16(%rbp), %rdx
	addq	$16, %rsp
	popq	%rbp
	retq
	.cfi_endproc

	.p2align	4, 0x90
__ZN3std6thread9panicking17hcd6269c27b3fa957E:
	.cfi_startproc
	pushq	%rbp
	.cfi_def_cfa_offset 16
	.cfi_offset %rbp, -16
	movq	%rsp, %rbp
	.cfi_def_cfa_register %rbp
	subq	$16, %rsp
	callq	__ZN3std9panicking9panicking17h8cfba6df592e2fa9E
	movb	%al, -1(%rbp)
	movb	-1(%rbp), %al
	andb	$1, %al
	movzbl	%al, %eax
	addq	$16, %rsp
	popq	%rbp
	retq
	.cfi_endproc

	.p2align	4, 0x90
__ZN40_$LT$alloc..raw_vec..RawVec$LT$T$GT$$GT$13with_capacity17hac0a06a5d0da4f3fE:
	.cfi_startproc
	pushq	%rbp
	.cfi_def_cfa_offset 16
	.cfi_offset %rbp, -16
	movq	%rsp, %rbp
	.cfi_def_cfa_register %rbp
	subq	$32, %rsp
	xorl	%esi, %esi
	callq	__ZN49_$LT$alloc..raw_vec..RawVec$LT$T$C$$u20$A$GT$$GT$11allocate_in17h115772973e7f2a2aE
	movq	%rax, -16(%rbp)
	movq	%rdx, -24(%rbp)
	movq	-16(%rbp), %rax
	movq	-24(%rbp), %rdx
	addq	$32, %rsp
	popq	%rbp
	retq
	.cfi_endproc

	.p2align	4, 0x90
__ZN40_$LT$alloc..raw_vec..RawVec$LT$T$GT$$GT$3new17h4bf8063bcb08f014E:
	.cfi_startproc
	pushq	%rbp
	.cfi_def_cfa_offset 16
	.cfi_offset %rbp, -16
	movq	%rsp, %rbp
	.cfi_def_cfa_register %rbp
	subq	$32, %rsp
	callq	__ZN49_$LT$alloc..raw_vec..RawVec$LT$T$C$$u20$A$GT$$GT$6new_in17h97ae5c00538acab0E
	movq	%rax, -16(%rbp)
	movq	%rdx, -24(%rbp)
	movq	-16(%rbp), %rax
	movq	-24(%rbp), %rdx
	addq	$32, %rsp
	popq	%rbp
	retq
	.cfi_endproc

	.p2align	4, 0x90
__ZN40_$LT$alloc..raw_vec..RawVec$LT$T$GT$$GT$3new17hec37f96432a66a5aE:
	.cfi_startproc
	pushq	%rbp
	.cfi_def_cfa_offset 16
	.cfi_offset %rbp, -16
	movq	%rsp, %rbp
	.cfi_def_cfa_register %rbp
	subq	$32, %rsp
	callq	__ZN49_$LT$alloc..raw_vec..RawVec$LT$T$C$$u20$A$GT$$GT$6new_in17h963c94a5a39eb081E
	movq	%rax, -16(%rbp)
	movq	%rdx, -24(%rbp)
	movq	-16(%rbp), %rax
	movq	-24(%rbp), %rdx
	addq	$32, %rsp
	popq	%rbp
	retq
	.cfi_endproc

	.p2align	4, 0x90
__ZN40_$LT$core..cell..UnsafeCell$LT$T$GT$$GT$3get17h2c06a4b668252085E:
	.cfi_startproc
	pushq	%rbp
	.cfi_def_cfa_offset 16
	.cfi_offset %rbp, -16
	movq	%rsp, %rbp
	.cfi_def_cfa_register %rbp
	movq	%rdi, %rax
	popq	%rbp
	retq
	.cfi_endproc

	.p2align	4, 0x90
__ZN40_$LT$core..cell..UnsafeCell$LT$T$GT$$GT$3get17h4ac446762ae3391fE:
	.cfi_startproc
	pushq	%rbp
	.cfi_def_cfa_offset 16
	.cfi_offset %rbp, -16
	movq	%rsp, %rbp
	.cfi_def_cfa_register %rbp
	movq	%rdi, %rax
	popq	%rbp
	retq
	.cfi_endproc

	.p2align	4, 0x90
__ZN40_$LT$core..cell..UnsafeCell$LT$T$GT$$GT$3get17haa7788e6b3ca1c46E:
	.cfi_startproc
	pushq	%rbp
	.cfi_def_cfa_offset 16
	.cfi_offset %rbp, -16
	movq	%rsp, %rbp
	.cfi_def_cfa_register %rbp
	movq	%rdi, %rax
	popq	%rbp
	retq
	.cfi_endproc

	.p2align	4, 0x90
__ZN42_$LT$$RF$T$u20$as$u20$core..fmt..Debug$GT$3fmt17h25d182435f413de4E:
	.cfi_startproc
	pushq	%rbp
	.cfi_def_cfa_offset 16
	.cfi_offset %rbp, -16
	movq	%rsp, %rbp
	.cfi_def_cfa_register %rbp
	subq	$16, %rsp
	movq	(%rdi), %rdi
	callq	__ZN4core3fmt3num50_$LT$impl$u20$core..fmt..Debug$u20$for$u20$u64$GT$3fmt17h445ccc6725f3e611E
	movb	%al, -1(%rbp)
	movb	-1(%rbp), %al
	andb	$1, %al
	movzbl	%al, %eax
	addq	$16, %rsp
	popq	%rbp
	retq
	.cfi_endproc

	.p2align	4, 0x90
__ZN42_$LT$$RF$T$u20$as$u20$core..fmt..Debug$GT$3fmt17hee7ccd7fe458464fE:
	.cfi_startproc
	pushq	%rbp
	.cfi_def_cfa_offset 16
	.cfi_offset %rbp, -16
	movq	%rsp, %rbp
	.cfi_def_cfa_register %rbp
	subq	$16, %rsp
	movq	(%rdi), %rdi
	callq	__ZN4core3fmt3num52_$LT$impl$u20$core..fmt..Debug$u20$for$u20$usize$GT$3fmt17h4e353b6b289d8e85E
	movb	%al, -1(%rbp)
	movb	-1(%rbp), %al
	andb	$1, %al
	movzbl	%al, %eax
	addq	$16, %rsp
	popq	%rbp
	retq
	.cfi_endproc

	.p2align	4, 0x90
__ZN44_$LT$$RF$T$u20$as$u20$core..fmt..Display$GT$3fmt17hcd03709204b5bf2cE:
	.cfi_startproc
	pushq	%rbp
	.cfi_def_cfa_offset 16
	.cfi_offset %rbp, -16
	movq	%rsp, %rbp
	.cfi_def_cfa_register %rbp
	subq	$32, %rsp
	movq	(%rdi), %rax
	movq	8(%rdi), %rdi
	movq	%rdi, -8(%rbp)
	movq	%rax, %rdi
	movq	-8(%rbp), %rax
	movq	%rsi, -16(%rbp)
	movq	%rax, %rsi
	movq	-16(%rbp), %rdx
	callq	__ZN42_$LT$str$u20$as$u20$core..fmt..Display$GT$3fmt17h547507109a7cd613E
	movb	%al, -17(%rbp)
	movb	-17(%rbp), %al
	andb	$1, %al
	movzbl	%al, %eax
	addq	$32, %rsp
	popq	%rbp
	retq
	.cfi_endproc

	.p2align	4, 0x90
__ZN45_$LT$f32$u20$as$u20$core..ops..arith..Div$GT$3div17hd67ed12f42ca52e1E:
	.cfi_startproc
	pushq	%rbp
	.cfi_def_cfa_offset 16
	.cfi_offset %rbp, -16
	movq	%rsp, %rbp
	.cfi_def_cfa_register %rbp
	divss	%xmm1, %xmm0
	popq	%rbp
	retq
	.cfi_endproc

	.p2align	4, 0x90
__ZN45_$LT$f32$u20$as$u20$core..ops..arith..Mul$GT$3mul17h6c442d099189a9efE:
	.cfi_startproc
	pushq	%rbp
	.cfi_def_cfa_offset 16
	.cfi_offset %rbp, -16
	movq	%rsp, %rbp
	.cfi_def_cfa_register %rbp
	mulss	%xmm1, %xmm0
	popq	%rbp
	retq
	.cfi_endproc

	.p2align	4, 0x90
__ZN45_$LT$f32$u20$as$u20$core..ops..arith..Neg$GT$3neg17h58f7fc38f2698134E:
	.cfi_startproc
	pushq	%rbp
	.cfi_def_cfa_offset 16
	.cfi_offset %rbp, -16
	movq	%rsp, %rbp
	.cfi_def_cfa_register %rbp
	movd	%xmm0, %eax
	xorl	$2147483648, %eax
	movd	%eax, %xmm0
	popq	%rbp
	retq
	.cfi_endproc

	.p2align	4, 0x90
__ZN45_$LT$u32$u20$as$u20$core..ops..arith..Add$GT$3add17hd032a3ab38a6c064E:
	.cfi_startproc
	pushq	%rbp
	.cfi_def_cfa_offset 16
	.cfi_offset %rbp, -16
	movq	%rsp, %rbp
	.cfi_def_cfa_register %rbp
	subq	$16, %rsp
	addl	%esi, %edi
	setb	%al
	testb	$1, %al
	movl	%edi, -4(%rbp)
	jne	LBB96_2
	movl	-4(%rbp), %eax
	addq	$16, %rsp
	popq	%rbp
	retq
LBB96_2:
	leaq	l___unnamed_5(%rip), %rdi
	callq	__ZN4core9panicking5panic17h9e14359664dfef5fE
	.cfi_endproc

	.p2align	4, 0x90
__ZN47_$LT$core..result..Result$LT$T$C$$u20$E$GT$$GT$14unwrap_or_else17h10992ce16b4732a3E:
Lfunc_begin11:
	.cfi_startproc
	.cfi_personality 155, _rust_eh_personality
	.cfi_lsda 16, Lexception11
	pushq	%rbp
	.cfi_def_cfa_offset 16
	.cfi_offset %rbp, -16
	movq	%rsp, %rbp
	.cfi_def_cfa_register %rbp
	subq	$64, %rsp
	movl	%edi, -40(%rbp)
	movl	%esi, -36(%rbp)
	movb	$0, -18(%rbp)
	movb	$0, -19(%rbp)
	movb	$0, -17(%rbp)
	movb	$1, -19(%rbp)
	movb	$1, -18(%rbp)
	movb	$1, -17(%rbp)
	movl	-40(%rbp), %esi
	movl	%esi, %eax
	testq	%rax, %rax
	movq	%rax, -48(%rbp)
	je	LBB97_3
	jmp	LBB97_20
LBB97_20:
	movq	-48(%rbp), %rax
	subq	$1, %rax
	movq	%rax, -56(%rbp)
	je	LBB97_4
	jmp	LBB97_2
LBB97_1:
	movq	-16(%rbp), %rdi
	callq	__Unwind_Resume
	ud2
LBB97_2:
	ud2
LBB97_3:
	movb	$0, -18(%rbp)
	movl	-36(%rbp), %eax
	movl	%eax, -28(%rbp)
	jmp	LBB97_6
LBB97_4:
	movb	$0, -19(%rbp)
	movb	$0, -17(%rbp)
Ltmp158:
	callq	__ZN4core3num7dec2flt5rawfp13encode_normal28_$u7b$$u7b$closure$u7d$$u7d$17h6427ed1b836e492aE
Ltmp159:
	movl	%eax, -60(%rbp)
	jmp	LBB97_5
LBB97_5:
	movl	-60(%rbp), %eax
	movl	%eax, -28(%rbp)
LBB97_6:
	testb	$1, -17(%rbp)
	jne	LBB97_13
LBB97_7:
	movl	-40(%rbp), %eax
	movl	%eax, %ecx
	cmpq	$0, %rcx
	je	LBB97_15
	jmp	LBB97_17
LBB97_8:
	testb	$1, -18(%rbp)
	je	LBB97_1
	movb	$0, -18(%rbp)
	jmp	LBB97_1
LBB97_10:
	testb	$1, -19(%rbp)
	je	LBB97_1
	movb	$0, -19(%rbp)
	jmp	LBB97_1
LBB97_12:
	movl	-40(%rbp), %eax
	movl	%eax, %ecx
	cmpq	$0, %rcx
	je	LBB97_8
	jmp	LBB97_10
LBB97_13:
	movb	$0, -17(%rbp)
	jmp	LBB97_7
LBB97_14:
	movl	-28(%rbp), %eax
	addq	$64, %rsp
	popq	%rbp
	retq
LBB97_15:
	testb	$1, -18(%rbp)
	je	LBB97_14
	movb	$0, -18(%rbp)
	jmp	LBB97_14
LBB97_17:
	testb	$1, -19(%rbp)
	je	LBB97_14
	movb	$0, -19(%rbp)
	jmp	LBB97_14
LBB97_19:
Ltmp160:
	movl	%edx, %ecx
	movq	%rax, -16(%rbp)
	movl	%ecx, -8(%rbp)
	jmp	LBB97_12
Lfunc_end11:
	.cfi_endproc
	.section	__TEXT,__gcc_except_tab
	.p2align	2
GCC_except_table97:
Lexception11:
	.byte	255
	.byte	255
	.byte	1
	.uleb128 Lcst_end11-Lcst_begin11
Lcst_begin11:
	.uleb128 Lfunc_begin11-Lfunc_begin11
	.uleb128 Ltmp158-Lfunc_begin11
	.byte	0
	.byte	0
	.uleb128 Ltmp158-Lfunc_begin11
	.uleb128 Ltmp159-Ltmp158
	.uleb128 Ltmp160-Lfunc_begin11
	.byte	0
Lcst_end11:
	.p2align	2

	.section	__TEXT,__text,regular,pure_instructions
	.p2align	4, 0x90
__ZN47_$LT$core..result..Result$LT$T$C$$u20$E$GT$$GT$14unwrap_or_else17hce9e76ade29b44beE:
Lfunc_begin12:
	.cfi_startproc
	.cfi_personality 155, _rust_eh_personality
	.cfi_lsda 16, Lexception12
	pushq	%rbp
	.cfi_def_cfa_offset 16
	.cfi_offset %rbp, -16
	movq	%rsp, %rbp
	.cfi_def_cfa_register %rbp
	subq	$64, %rsp
	movl	%edi, -40(%rbp)
	movl	%esi, -36(%rbp)
	movb	$0, -18(%rbp)
	movb	$0, -19(%rbp)
	movb	$0, -17(%rbp)
	movb	$1, -19(%rbp)
	movb	$1, -18(%rbp)
	movb	$1, -17(%rbp)
	movl	-40(%rbp), %esi
	movl	%esi, %eax
	testq	%rax, %rax
	movq	%rax, -48(%rbp)
	je	LBB98_3
	jmp	LBB98_20
LBB98_20:
	movq	-48(%rbp), %rax
	subq	$1, %rax
	movq	%rax, -56(%rbp)
	je	LBB98_4
	jmp	LBB98_2
LBB98_1:
	movq	-16(%rbp), %rdi
	callq	__Unwind_Resume
	ud2
LBB98_2:
	ud2
LBB98_3:
	movb	$0, -18(%rbp)
	movl	-36(%rbp), %eax
	movl	%eax, -28(%rbp)
	jmp	LBB98_6
LBB98_4:
	movb	$0, -19(%rbp)
	movb	$0, -17(%rbp)
Ltmp161:
	callq	__ZN4core3num7dec2flt5rawfp16encode_subnormal28_$u7b$$u7b$closure$u7d$$u7d$17h83466f9b79d41236E
Ltmp162:
	movl	%eax, -60(%rbp)
	jmp	LBB98_5
LBB98_5:
	movl	-60(%rbp), %eax
	movl	%eax, -28(%rbp)
LBB98_6:
	testb	$1, -17(%rbp)
	jne	LBB98_13
LBB98_7:
	movl	-40(%rbp), %eax
	movl	%eax, %ecx
	cmpq	$0, %rcx
	je	LBB98_15
	jmp	LBB98_17
LBB98_8:
	testb	$1, -18(%rbp)
	je	LBB98_1
	movb	$0, -18(%rbp)
	jmp	LBB98_1
LBB98_10:
	testb	$1, -19(%rbp)
	je	LBB98_1
	movb	$0, -19(%rbp)
	jmp	LBB98_1
LBB98_12:
	movl	-40(%rbp), %eax
	movl	%eax, %ecx
	cmpq	$0, %rcx
	je	LBB98_8
	jmp	LBB98_10
LBB98_13:
	movb	$0, -17(%rbp)
	jmp	LBB98_7
LBB98_14:
	movl	-28(%rbp), %eax
	addq	$64, %rsp
	popq	%rbp
	retq
LBB98_15:
	testb	$1, -18(%rbp)
	je	LBB98_14
	movb	$0, -18(%rbp)
	jmp	LBB98_14
LBB98_17:
	testb	$1, -19(%rbp)
	je	LBB98_14
	movb	$0, -19(%rbp)
	jmp	LBB98_14
LBB98_19:
Ltmp163:
	movl	%edx, %ecx
	movq	%rax, -16(%rbp)
	movl	%ecx, -8(%rbp)
	jmp	LBB98_12
Lfunc_end12:
	.cfi_endproc
	.section	__TEXT,__gcc_except_tab
	.p2align	2
GCC_except_table98:
Lexception12:
	.byte	255
	.byte	255
	.byte	1
	.uleb128 Lcst_end12-Lcst_begin12
Lcst_begin12:
	.uleb128 Lfunc_begin12-Lfunc_begin12
	.uleb128 Ltmp161-Lfunc_begin12
	.byte	0
	.byte	0
	.uleb128 Ltmp161-Lfunc_begin12
	.uleb128 Ltmp162-Ltmp161
	.uleb128 Ltmp163-Lfunc_begin12
	.byte	0
Lcst_end12:
	.p2align	2

	.section	__TEXT,__text,regular,pure_instructions
	.p2align	4, 0x90
__ZN47_$LT$core..result..Result$LT$T$C$$u20$E$GT$$GT$14unwrap_or_else17hfdc3dcac590bc76cE:
Lfunc_begin13:
	.cfi_startproc
	.cfi_personality 155, _rust_eh_personality
	.cfi_lsda 16, Lexception13
	pushq	%rbp
	.cfi_def_cfa_offset 16
	.cfi_offset %rbp, -16
	movq	%rsp, %rbp
	.cfi_def_cfa_register %rbp
	subq	$48, %rsp
	movb	%dil, %al
	movb	%al, -25(%rbp)
	movb	$0, -18(%rbp)
	movb	$0, -19(%rbp)
	movb	$0, -17(%rbp)
	movb	$1, -19(%rbp)
	movb	$1, -18(%rbp)
	movb	$1, -17(%rbp)
	movb	-25(%rbp), %al
	subb	$2, %al
	setne	%cl
	movzbl	%cl, %edi
	movl	%edi, %edx
	movb	%al, -26(%rbp)
	movq	%rdx, -40(%rbp)
	je	LBB99_3
	jmp	LBB99_20
LBB99_20:
	movq	-40(%rbp), %rax
	subq	$1, %rax
	movq	%rax, -48(%rbp)
	je	LBB99_4
	jmp	LBB99_2
LBB99_1:
	movq	-16(%rbp), %rdi
	callq	__Unwind_Resume
	ud2
LBB99_2:
	ud2
LBB99_3:
	movb	$0, -18(%rbp)
	jmp	LBB99_6
LBB99_4:
	movb	$0, -19(%rbp)
	movb	-25(%rbp), %al
	movb	$0, -17(%rbp)
	movb	%al, -20(%rbp)
	movzbl	-20(%rbp), %edi
Ltmp164:
	callq	__ZN49_$LT$alloc..raw_vec..RawVec$LT$T$C$$u20$A$GT$$GT$11allocate_in28_$u7b$$u7b$closure$u7d$$u7d$17h67c25c1444990b88E
Ltmp165:
	jmp	LBB99_5
LBB99_5:
	jmp	LBB99_6
LBB99_6:
	testb	$1, -17(%rbp)
	jne	LBB99_13
LBB99_7:
	movl	$1, %eax
	movl	%eax, %ecx
	xorl	%eax, %eax
	movl	%eax, %edx
	cmpb	$2, -25(%rbp)
	cmoveq	%rdx, %rcx
	cmpq	$0, %rcx
	je	LBB99_15
	jmp	LBB99_17
LBB99_8:
	testb	$1, -18(%rbp)
	je	LBB99_1
	movb	$0, -18(%rbp)
	jmp	LBB99_1
LBB99_10:
	testb	$1, -19(%rbp)
	je	LBB99_1
	movb	$0, -19(%rbp)
	jmp	LBB99_1
LBB99_12:
	movl	$1, %eax
	movl	%eax, %ecx
	xorl	%eax, %eax
	movl	%eax, %edx
	cmpb	$2, -25(%rbp)
	cmoveq	%rdx, %rcx
	cmpq	$0, %rcx
	je	LBB99_8
	jmp	LBB99_10
LBB99_13:
	movb	$0, -17(%rbp)
	jmp	LBB99_7
LBB99_14:
	addq	$48, %rsp
	popq	%rbp
	retq
LBB99_15:
	testb	$1, -18(%rbp)
	je	LBB99_14
	movb	$0, -18(%rbp)
	jmp	LBB99_14
LBB99_17:
	testb	$1, -19(%rbp)
	je	LBB99_14
	movb	$0, -19(%rbp)
	jmp	LBB99_14
LBB99_19:
Ltmp166:
	movl	%edx, %ecx
	movq	%rax, -16(%rbp)
	movl	%ecx, -8(%rbp)
	jmp	LBB99_12
Lfunc_end13:
	.cfi_endproc
	.section	__TEXT,__gcc_except_tab
	.p2align	2
GCC_except_table99:
Lexception13:
	.byte	255
	.byte	255
	.byte	1
	.uleb128 Lcst_end13-Lcst_begin13
Lcst_begin13:
	.uleb128 Lfunc_begin13-Lfunc_begin13
	.uleb128 Ltmp164-Lfunc_begin13
	.byte	0
	.byte	0
	.uleb128 Ltmp164-Lfunc_begin13
	.uleb128 Ltmp165-Ltmp164
	.uleb128 Ltmp166-Lfunc_begin13
	.byte	0
Lcst_end13:
	.p2align	2

	.section	__TEXT,__text,regular,pure_instructions
	.p2align	4, 0x90
__ZN47_$LT$core..result..Result$LT$T$C$$u20$E$GT$$GT$3map17h0362d4c6f3b2891eE:
Lfunc_begin14:
	.cfi_startproc
	.cfi_personality 155, _rust_eh_personality
	.cfi_lsda 16, Lexception14
	pushq	%rbp
	.cfi_def_cfa_offset 16
	.cfi_offset %rbp, -16
	movq	%rsp, %rbp
	.cfi_def_cfa_register %rbp
	subq	$160, %rsp
	movb	$0, -18(%rbp)
	movb	$0, -19(%rbp)
	movb	$0, -17(%rbp)
	movb	$1, -19(%rbp)
	movb	$1, -18(%rbp)
	movb	$1, -17(%rbp)
	movq	8(%rdi), %rax
	testq	%rax, %rax
	sete	%cl
	movzbl	%cl, %edx
	movl	%edx, %eax
	movq	%rdi, -120(%rbp)
	movq	%rax, -128(%rbp)
	jne	LBB100_3
	jmp	LBB100_20
LBB100_20:
	movq	-128(%rbp), %rax
	subq	$1, %rax
	movq	%rax, -136(%rbp)
	je	LBB100_4
	jmp	LBB100_2
LBB100_1:
	movq	-16(%rbp), %rdi
	callq	__Unwind_Resume
	ud2
LBB100_2:
	ud2
LBB100_3:
	movb	$0, -18(%rbp)
	movq	-120(%rbp), %rax
	movq	16(%rax), %rcx
	movq	%rcx, -80(%rbp)
	movq	(%rax), %rcx
	movq	8(%rax), %rdx
	movq	%rdx, -88(%rbp)
	movq	%rcx, -96(%rbp)
	movb	$0, -17(%rbp)
	movq	-80(%rbp), %rcx
	movq	%rcx, -32(%rbp)
	movq	-96(%rbp), %rcx
	movq	-88(%rbp), %rdx
	movq	%rdx, -40(%rbp)
	movq	%rcx, -48(%rbp)
	movq	-32(%rbp), %rcx
	movq	%rcx, -56(%rbp)
	movq	-48(%rbp), %rcx
	movq	-40(%rbp), %rdx
	movq	%rdx, -64(%rbp)
	movq	%rcx, -72(%rbp)
Ltmp167:
	leaq	-72(%rbp), %rdi
	callq	__ZN4core5alloc6Layout5array28_$u7b$$u7b$closure$u7d$$u7d$17h1baca9df2f08bc93E
Ltmp168:
	movq	%rdx, -144(%rbp)
	movq	%rax, -152(%rbp)
	jmp	LBB100_6
LBB100_4:
	movb	$0, -19(%rbp)
	movq	$0, -104(%rbp)
LBB100_5:
	testb	$1, -17(%rbp)
	jne	LBB100_13
	jmp	LBB100_7
LBB100_6:
	movq	-152(%rbp), %rax
	movq	%rax, -112(%rbp)
	movq	-144(%rbp), %rax
	movq	%rax, -104(%rbp)
	jmp	LBB100_5
LBB100_7:
	xorl	%eax, %eax
	movl	%eax, %ecx
	movl	$1, %eax
	movl	%eax, %edx
	movq	-120(%rbp), %rsi
	cmpq	$0, 8(%rsi)
	cmoveq	%rdx, %rcx
	cmpq	$0, %rcx
	je	LBB100_15
	jmp	LBB100_17
LBB100_8:
	testb	$1, -18(%rbp)
	je	LBB100_1
	movb	$0, -18(%rbp)
	jmp	LBB100_1
LBB100_10:
	testb	$1, -19(%rbp)
	je	LBB100_1
	movb	$0, -19(%rbp)
	jmp	LBB100_1
LBB100_12:
	xorl	%eax, %eax
	movl	%eax, %ecx
	movl	$1, %eax
	movl	%eax, %edx
	movq	-120(%rbp), %rsi
	cmpq	$0, 8(%rsi)
	cmoveq	%rdx, %rcx
	cmpq	$0, %rcx
	je	LBB100_8
	jmp	LBB100_10
LBB100_13:
	movb	$0, -17(%rbp)
	jmp	LBB100_7
LBB100_14:
	movq	-112(%rbp), %rax
	movq	-104(%rbp), %rdx
	addq	$160, %rsp
	popq	%rbp
	retq
LBB100_15:
	testb	$1, -18(%rbp)
	je	LBB100_14
	movb	$0, -18(%rbp)
	jmp	LBB100_14
LBB100_17:
	testb	$1, -19(%rbp)
	je	LBB100_14
	movb	$0, -19(%rbp)
	jmp	LBB100_14
LBB100_19:
Ltmp169:
	movl	%edx, %ecx
	movq	%rax, -16(%rbp)
	movl	%ecx, -8(%rbp)
	jmp	LBB100_12
Lfunc_end14:
	.cfi_endproc
	.section	__TEXT,__gcc_except_tab
	.p2align	2
GCC_except_table100:
Lexception14:
	.byte	255
	.byte	255
	.byte	1
	.uleb128 Lcst_end14-Lcst_begin14
Lcst_begin14:
	.uleb128 Lfunc_begin14-Lfunc_begin14
	.uleb128 Ltmp167-Lfunc_begin14
	.byte	0
	.byte	0
	.uleb128 Ltmp167-Lfunc_begin14
	.uleb128 Ltmp168-Ltmp167
	.uleb128 Ltmp169-Lfunc_begin14
	.byte	0
Lcst_end14:
	.p2align	2

	.section	__TEXT,__text,regular,pure_instructions
	.p2align	4, 0x90
__ZN47_$LT$core..result..Result$LT$T$C$$u20$E$GT$$GT$3map17h4dee342780b70850E:
Lfunc_begin15:
	.cfi_startproc
	.cfi_personality 155, _rust_eh_personality
	.cfi_lsda 16, Lexception15
	pushq	%rbp
	.cfi_def_cfa_offset 16
	.cfi_offset %rbp, -16
	movq	%rsp, %rbp
	.cfi_def_cfa_register %rbp
	subq	$160, %rsp
	movb	$0, -18(%rbp)
	movb	$0, -19(%rbp)
	movb	$0, -17(%rbp)
	movb	$1, -19(%rbp)
	movb	$1, -18(%rbp)
	movb	$1, -17(%rbp)
	movq	8(%rdi), %rax
	testq	%rax, %rax
	sete	%cl
	movzbl	%cl, %edx
	movl	%edx, %eax
	movq	%rdi, -120(%rbp)
	movq	%rax, -128(%rbp)
	jne	LBB101_3
	jmp	LBB101_20
LBB101_20:
	movq	-128(%rbp), %rax
	subq	$1, %rax
	movq	%rax, -136(%rbp)
	je	LBB101_4
	jmp	LBB101_2
LBB101_1:
	movq	-16(%rbp), %rdi
	callq	__Unwind_Resume
	ud2
LBB101_2:
	ud2
LBB101_3:
	movb	$0, -18(%rbp)
	movq	-120(%rbp), %rax
	movq	16(%rax), %rcx
	movq	%rcx, -80(%rbp)
	movq	(%rax), %rcx
	movq	8(%rax), %rdx
	movq	%rdx, -88(%rbp)
	movq	%rcx, -96(%rbp)
	movb	$0, -17(%rbp)
	movq	-80(%rbp), %rcx
	movq	%rcx, -32(%rbp)
	movq	-96(%rbp), %rcx
	movq	-88(%rbp), %rdx
	movq	%rdx, -40(%rbp)
	movq	%rcx, -48(%rbp)
	movq	-32(%rbp), %rcx
	movq	%rcx, -56(%rbp)
	movq	-48(%rbp), %rcx
	movq	-40(%rbp), %rdx
	movq	%rdx, -64(%rbp)
	movq	%rcx, -72(%rbp)
Ltmp170:
	leaq	-72(%rbp), %rdi
	callq	__ZN4core5alloc6Layout5array28_$u7b$$u7b$closure$u7d$$u7d$17h676a24c13bc8dfcbE
Ltmp171:
	movq	%rdx, -144(%rbp)
	movq	%rax, -152(%rbp)
	jmp	LBB101_6
LBB101_4:
	movb	$0, -19(%rbp)
	movq	$0, -104(%rbp)
LBB101_5:
	testb	$1, -17(%rbp)
	jne	LBB101_13
	jmp	LBB101_7
LBB101_6:
	movq	-152(%rbp), %rax
	movq	%rax, -112(%rbp)
	movq	-144(%rbp), %rax
	movq	%rax, -104(%rbp)
	jmp	LBB101_5
LBB101_7:
	xorl	%eax, %eax
	movl	%eax, %ecx
	movl	$1, %eax
	movl	%eax, %edx
	movq	-120(%rbp), %rsi
	cmpq	$0, 8(%rsi)
	cmoveq	%rdx, %rcx
	cmpq	$0, %rcx
	je	LBB101_15
	jmp	LBB101_17
LBB101_8:
	testb	$1, -18(%rbp)
	je	LBB101_1
	movb	$0, -18(%rbp)
	jmp	LBB101_1
LBB101_10:
	testb	$1, -19(%rbp)
	je	LBB101_1
	movb	$0, -19(%rbp)
	jmp	LBB101_1
LBB101_12:
	xorl	%eax, %eax
	movl	%eax, %ecx
	movl	$1, %eax
	movl	%eax, %edx
	movq	-120(%rbp), %rsi
	cmpq	$0, 8(%rsi)
	cmoveq	%rdx, %rcx
	cmpq	$0, %rcx
	je	LBB101_8
	jmp	LBB101_10
LBB101_13:
	movb	$0, -17(%rbp)
	jmp	LBB101_7
LBB101_14:
	movq	-112(%rbp), %rax
	movq	-104(%rbp), %rdx
	addq	$160, %rsp
	popq	%rbp
	retq
LBB101_15:
	testb	$1, -18(%rbp)
	je	LBB101_14
	movb	$0, -18(%rbp)
	jmp	LBB101_14
LBB101_17:
	testb	$1, -19(%rbp)
	je	LBB101_14
	movb	$0, -19(%rbp)
	jmp	LBB101_14
LBB101_19:
Ltmp172:
	movl	%edx, %ecx
	movq	%rax, -16(%rbp)
	movl	%ecx, -8(%rbp)
	jmp	LBB101_12
Lfunc_end15:
	.cfi_endproc
	.section	__TEXT,__gcc_except_tab
	.p2align	2
GCC_except_table101:
Lexception15:
	.byte	255
	.byte	255
	.byte	1
	.uleb128 Lcst_end15-Lcst_begin15
Lcst_begin15:
	.uleb128 Lfunc_begin15-Lfunc_begin15
	.uleb128 Ltmp170-Lfunc_begin15
	.byte	0
	.byte	0
	.uleb128 Ltmp170-Lfunc_begin15
	.uleb128 Ltmp171-Ltmp170
	.uleb128 Ltmp172-Lfunc_begin15
	.byte	0
Lcst_end15:
	.p2align	2

	.section	__TEXT,__text,regular,pure_instructions
	.p2align	4, 0x90
__ZN47_$LT$core..result..Result$LT$T$C$$u20$E$GT$$GT$5is_ok17hc8d10e0e5d484509E:
	.cfi_startproc
	pushq	%rbp
	.cfi_def_cfa_offset 16
	.cfi_offset %rbp, -16
	movq	%rsp, %rbp
	.cfi_def_cfa_register %rbp
	subq	$24, %rsp
	movq	(%rdi), %rdi
	testq	%rdi, %rdi
	movq	%rdi, -16(%rbp)
	je	LBB102_1
	jmp	LBB102_5
LBB102_5:
	movq	-16(%rbp), %rax
	subq	$1, %rax
	movq	%rax, -24(%rbp)
	je	LBB102_2
	jmp	LBB102_3
LBB102_1:
	movb	$1, -1(%rbp)
	jmp	LBB102_4
LBB102_2:
	movb	$0, -1(%rbp)
	jmp	LBB102_4
LBB102_3:
	ud2
LBB102_4:
	movb	-1(%rbp), %al
	andb	$1, %al
	movzbl	%al, %eax
	addq	$24, %rsp
	popq	%rbp
	retq
	.cfi_endproc

	.p2align	4, 0x90
__ZN47_$LT$core..result..Result$LT$T$C$$u20$E$GT$$GT$6is_err17h510e231b8ff7b558E:
	.cfi_startproc
	pushq	%rbp
	.cfi_def_cfa_offset 16
	.cfi_offset %rbp, -16
	movq	%rsp, %rbp
	.cfi_def_cfa_register %rbp
	subq	$16, %rsp
	callq	__ZN47_$LT$core..result..Result$LT$T$C$$u20$E$GT$$GT$5is_ok17hc8d10e0e5d484509E
	movb	%al, -1(%rbp)
	movb	-1(%rbp), %al
	xorb	$-1, %al
	andb	$1, %al
	movzbl	%al, %eax
	addq	$16, %rsp
	popq	%rbp
	retq
	.cfi_endproc

	.p2align	4, 0x90
__ZN47_$LT$core..result..Result$LT$T$C$$u20$E$GT$$GT$6unwrap17h282b9deb4f0a16a1E:
Lfunc_begin16:
	.cfi_startproc
	.cfi_personality 155, _rust_eh_personality
	.cfi_lsda 16, Lexception16
	pushq	%rbp
	.cfi_def_cfa_offset 16
	.cfi_offset %rbp, -16
	movq	%rsp, %rbp
	.cfi_def_cfa_register %rbp
	subq	$32, %rsp
	movq	%rdi, -24(%rbp)
	movb	$1, %al
	testb	%al, %al
	jne	LBB104_3
	jmp	LBB104_11
LBB104_11:
	xorl	%eax, %eax
	movb	%al, %cl
	testb	%cl, %cl
	jne	LBB104_4
	jmp	LBB104_2
LBB104_1:
	movq	-16(%rbp), %rdi
	callq	__Unwind_Resume
	ud2
LBB104_2:
	ud2
LBB104_3:
	movq	-24(%rbp), %rax
	movb	$1, %cl
	testb	$1, %cl
	movq	%rax, -32(%rbp)
	jne	LBB104_7
	jmp	LBB104_8
LBB104_4:
Ltmp173:
	leaq	l___unnamed_6(%rip), %rdi
	movl	$43, %esi
	callq	__ZN4core6result13unwrap_failed17h480456de6330578dE
Ltmp174:
	jmp	LBB104_9
LBB104_5:
	movb	$1, %al
	testb	$1, %al
	jne	LBB104_6
	jmp	LBB104_1
LBB104_6:
	jmp	LBB104_1
LBB104_7:
	movq	-32(%rbp), %rax
	addq	$32, %rsp
	popq	%rbp
	retq
LBB104_8:
	jmp	LBB104_7
LBB104_9:
	ud2
LBB104_10:
Ltmp175:
	movl	%edx, %ecx
	movq	%rax, -16(%rbp)
	movl	%ecx, -8(%rbp)
	jmp	LBB104_5
Lfunc_end16:
	.cfi_endproc
	.section	__TEXT,__gcc_except_tab
	.p2align	2
GCC_except_table104:
Lexception16:
	.byte	255
	.byte	255
	.byte	1
	.uleb128 Lcst_end16-Lcst_begin16
Lcst_begin16:
	.uleb128 Lfunc_begin16-Lfunc_begin16
	.uleb128 Ltmp173-Lfunc_begin16
	.byte	0
	.byte	0
	.uleb128 Ltmp173-Lfunc_begin16
	.uleb128 Ltmp174-Ltmp173
	.uleb128 Ltmp175-Lfunc_begin16
	.byte	0
Lcst_end16:
	.p2align	2

	.section	__TEXT,__text,regular,pure_instructions
	.p2align	4, 0x90
__ZN47_$LT$core..result..Result$LT$T$C$$u20$E$GT$$GT$6unwrap17h93a7314330e0e204E:
Lfunc_begin17:
	.cfi_startproc
	.cfi_personality 155, _rust_eh_personality
	.cfi_lsda 16, Lexception17
	pushq	%rbp
	.cfi_def_cfa_offset 16
	.cfi_offset %rbp, -16
	movq	%rsp, %rbp
	.cfi_def_cfa_register %rbp
	subq	$64, %rsp
	movq	%rdi, -24(%rbp)
	movq	-24(%rbp), %rdi
	movq	%rdi, -32(%rbp)
	movzbl	-32(%rbp), %eax
	movl	%eax, %edi
	movb	%dil, %cl
	testb	$1, %cl
	movq	%rdi, -40(%rbp)
	je	LBB105_3
	jmp	LBB105_11
LBB105_11:
	movq	-40(%rbp), %rax
	subq	$1, %rax
	movq	%rax, -48(%rbp)
	je	LBB105_4
	jmp	LBB105_2
LBB105_1:
	movq	-16(%rbp), %rdi
	callq	__Unwind_Resume
	ud2
LBB105_2:
	ud2
LBB105_3:
	movss	-28(%rbp), %xmm0
	movb	-32(%rbp), %al
	andb	$1, %al
	movzbl	%al, %ecx
	movl	%ecx, %edx
	cmpq	$0, %rdx
	movss	%xmm0, -52(%rbp)
	je	LBB105_7
	jmp	LBB105_8
LBB105_4:
	movzbl	-31(%rbp), %edx
Ltmp176:
	leaq	l___unnamed_6(%rip), %rdi
	movl	$43, %esi
	callq	__ZN4core6result13unwrap_failed17h4fe8a34e87849e00E
Ltmp177:
	jmp	LBB105_9
LBB105_5:
	movb	-32(%rbp), %al
	andb	$1, %al
	movzbl	%al, %ecx
	movl	%ecx, %edx
	cmpq	$0, %rdx
	jne	LBB105_1
	jmp	LBB105_1
LBB105_7:
	movss	-52(%rbp), %xmm0
	addq	$64, %rsp
	popq	%rbp
	retq
LBB105_8:
	jmp	LBB105_7
LBB105_9:
	ud2
LBB105_10:
Ltmp178:
	movl	%edx, %ecx
	movq	%rax, -16(%rbp)
	movl	%ecx, -8(%rbp)
	jmp	LBB105_5
Lfunc_end17:
	.cfi_endproc
	.section	__TEXT,__gcc_except_tab
	.p2align	2
GCC_except_table105:
Lexception17:
	.byte	255
	.byte	255
	.byte	1
	.uleb128 Lcst_end17-Lcst_begin17
Lcst_begin17:
	.uleb128 Lfunc_begin17-Lfunc_begin17
	.uleb128 Ltmp176-Lfunc_begin17
	.byte	0
	.byte	0
	.uleb128 Ltmp176-Lfunc_begin17
	.uleb128 Ltmp177-Ltmp176
	.uleb128 Ltmp178-Lfunc_begin17
	.byte	0
Lcst_end17:
	.p2align	2

	.section	__TEXT,__text,regular,pure_instructions
	.p2align	4, 0x90
__ZN47_$LT$core..result..Result$LT$T$C$$u20$E$GT$$GT$6unwrap17hab7c457b9258e8adE:
Lfunc_begin18:
	.cfi_startproc
	.cfi_personality 155, _rust_eh_personality
	.cfi_lsda 16, Lexception18
	pushq	%rbp
	.cfi_def_cfa_offset 16
	.cfi_offset %rbp, -16
	movq	%rsp, %rbp
	.cfi_def_cfa_register %rbp
	subq	$64, %rsp
	movq	%rdi, -32(%rbp)
	movq	%rsi, -24(%rbp)
	movq	-24(%rbp), %rsi
	testq	%rsi, %rsi
	sete	%al
	movzbl	%al, %ecx
	movl	%ecx, %esi
	movq	%rsi, -40(%rbp)
	jne	LBB106_3
	jmp	LBB106_11
LBB106_11:
	movq	-40(%rbp), %rax
	subq	$1, %rax
	movq	%rax, -48(%rbp)
	je	LBB106_4
	jmp	LBB106_2
LBB106_1:
	movq	-16(%rbp), %rdi
	callq	__Unwind_Resume
	ud2
LBB106_2:
	ud2
LBB106_3:
	xorl	%eax, %eax
	movl	%eax, %ecx
	movl	$1, %eax
	movl	%eax, %edx
	movq	-32(%rbp), %rax
	movq	-24(%rbp), %rsi
	cmpq	$0, -24(%rbp)
	cmoveq	%rdx, %rcx
	cmpq	$0, %rcx
	movq	%rsi, -56(%rbp)
	movq	%rax, -64(%rbp)
	je	LBB106_7
	jmp	LBB106_8
LBB106_4:
Ltmp179:
	leaq	l___unnamed_6(%rip), %rdi
	movl	$43, %esi
	callq	__ZN4core6result13unwrap_failed17h00daa73c3f4a9896E
Ltmp180:
	jmp	LBB106_9
LBB106_5:
	xorl	%eax, %eax
	movl	%eax, %ecx
	movl	$1, %eax
	movl	%eax, %edx
	cmpq	$0, -24(%rbp)
	cmoveq	%rdx, %rcx
	cmpq	$0, %rcx
	jne	LBB106_1
	jmp	LBB106_1
LBB106_7:
	movq	-64(%rbp), %rax
	movq	-56(%rbp), %rdx
	addq	$64, %rsp
	popq	%rbp
	retq
LBB106_8:
	jmp	LBB106_7
LBB106_9:
	ud2
LBB106_10:
Ltmp181:
	movl	%edx, %ecx
	movq	%rax, -16(%rbp)
	movl	%ecx, -8(%rbp)
	jmp	LBB106_5
Lfunc_end18:
	.cfi_endproc
	.section	__TEXT,__gcc_except_tab
	.p2align	2
GCC_except_table106:
Lexception18:
	.byte	255
	.byte	255
	.byte	1
	.uleb128 Lcst_end18-Lcst_begin18
Lcst_begin18:
	.uleb128 Lfunc_begin18-Lfunc_begin18
	.uleb128 Ltmp179-Lfunc_begin18
	.byte	0
	.byte	0
	.uleb128 Ltmp179-Lfunc_begin18
	.uleb128 Ltmp180-Ltmp179
	.uleb128 Ltmp181-Lfunc_begin18
	.byte	0
Lcst_end18:
	.p2align	2

	.section	__TEXT,__text,regular,pure_instructions
	.p2align	4, 0x90
__ZN47_$LT$core..result..Result$LT$T$C$$u20$E$GT$$GT$6unwrap17hd3f1a26be0b78ce1E:
Lfunc_begin19:
	.cfi_startproc
	.cfi_personality 155, _rust_eh_personality
	.cfi_lsda 16, Lexception19
	pushq	%rbp
	.cfi_def_cfa_offset 16
	.cfi_offset %rbp, -16
	movq	%rsp, %rbp
	.cfi_def_cfa_register %rbp
	subq	$112, %rsp
	movq	%rdi, %rax
	movq	(%rsi), %rcx
	testq	%rcx, %rcx
	movq	%rax, -80(%rbp)
	movq	%rsi, -88(%rbp)
	movq	%rdi, -96(%rbp)
	movq	%rcx, -104(%rbp)
	je	LBB107_3
	jmp	LBB107_11
LBB107_11:
	movq	-104(%rbp), %rax
	subq	$1, %rax
	movq	%rax, -112(%rbp)
	je	LBB107_4
	jmp	LBB107_2
LBB107_1:
	movq	-16(%rbp), %rdi
	callq	__Unwind_Resume
	ud2
LBB107_2:
	ud2
LBB107_3:
	movq	-88(%rbp), %rax
	movq	8(%rax), %rcx
	movq	%rcx, -72(%rbp)
	movq	16(%rax), %rcx
	movq	%rcx, -64(%rbp)
	movq	24(%rax), %rcx
	movq	%rcx, -56(%rbp)
	movq	-72(%rbp), %rcx
	movq	-96(%rbp), %rdx
	movq	%rcx, (%rdx)
	movq	-64(%rbp), %rcx
	movq	%rcx, 8(%rdx)
	movq	-56(%rbp), %rcx
	movq	%rcx, 16(%rdx)
	cmpq	$0, (%rax)
	je	LBB107_7
	jmp	LBB107_8
LBB107_4:
	movq	-88(%rbp), %rax
	movq	8(%rax), %rcx
	movq	16(%rax), %rdx
	movq	%rdx, -40(%rbp)
	movq	%rcx, -48(%rbp)
	movq	-48(%rbp), %rcx
	movq	-40(%rbp), %rdx
	movq	%rdx, -24(%rbp)
	movq	%rcx, -32(%rbp)
Ltmp182:
	leaq	l___unnamed_6(%rip), %rdi
	movl	$43, %esi
	leaq	-32(%rbp), %rdx
	callq	__ZN4core6result13unwrap_failed17hafc40836dc756a5eE
Ltmp183:
	jmp	LBB107_9
LBB107_5:
	movq	-88(%rbp), %rax
	cmpq	$0, (%rax)
	jne	LBB107_1
	movq	-88(%rbp), %rax
	addq	$8, %rax
	movq	%rax, %rdi
	callq	__ZN4core3ptr13drop_in_place17hd2f52cdc5a08f98eE
	jmp	LBB107_1
LBB107_7:
	movq	-80(%rbp), %rax
	addq	$112, %rsp
	popq	%rbp
	retq
LBB107_8:
	movq	-88(%rbp), %rax
	addq	$8, %rax
	movq	%rax, %rdi
	callq	__ZN4core3ptr13drop_in_place17hafa2f25152a694c3E
	jmp	LBB107_7
LBB107_9:
	ud2
LBB107_10:
Ltmp184:
	movl	%edx, %ecx
	movq	%rax, -16(%rbp)
	movl	%ecx, -8(%rbp)
	jmp	LBB107_5
Lfunc_end19:
	.cfi_endproc
	.section	__TEXT,__gcc_except_tab
	.p2align	2
GCC_except_table107:
Lexception19:
	.byte	255
	.byte	255
	.byte	1
	.uleb128 Lcst_end19-Lcst_begin19
Lcst_begin19:
	.uleb128 Lfunc_begin19-Lfunc_begin19
	.uleb128 Ltmp182-Lfunc_begin19
	.byte	0
	.byte	0
	.uleb128 Ltmp182-Lfunc_begin19
	.uleb128 Ltmp183-Ltmp182
	.uleb128 Ltmp184-Lfunc_begin19
	.byte	0
	.uleb128 Ltmp183-Lfunc_begin19
	.uleb128 Lfunc_end19-Ltmp183
	.byte	0
	.byte	0
Lcst_end19:
	.p2align	2

	.section	__TEXT,__text,regular,pure_instructions
	.p2align	4, 0x90
__ZN47_$LT$core..result..Result$LT$T$C$$u20$E$GT$$GT$7map_err17h923ad2faeb4f5bf8E:
Lfunc_begin20:
	.cfi_startproc
	.cfi_personality 155, _rust_eh_personality
	.cfi_lsda 16, Lexception20
	pushq	%rbp
	.cfi_def_cfa_offset 16
	.cfi_offset %rbp, -16
	movq	%rsp, %rbp
	.cfi_def_cfa_register %rbp
	subq	$80, %rsp
	movq	%rdi, %rax
	movq	%rsi, -40(%rbp)
	movq	%rdx, -32(%rbp)
	movb	$0, -18(%rbp)
	movb	$0, -19(%rbp)
	movb	$0, -17(%rbp)
	movb	$1, -19(%rbp)
	movb	$1, -18(%rbp)
	movb	$1, -17(%rbp)
	movq	-32(%rbp), %rdx
	testq	%rdx, %rdx
	sete	%cl
	movzbl	%cl, %r8d
	movl	%r8d, %edx
	movq	%rax, -48(%rbp)
	movq	%rdi, -56(%rbp)
	movq	%rdx, -64(%rbp)
	jne	LBB108_3
	jmp	LBB108_20
LBB108_20:
	movq	-64(%rbp), %rax
	subq	$1, %rax
	movq	%rax, -72(%rbp)
	je	LBB108_4
	jmp	LBB108_2
LBB108_1:
	movq	-16(%rbp), %rdi
	callq	__Unwind_Resume
	ud2
LBB108_2:
	ud2
LBB108_3:
	movb	$0, -18(%rbp)
	movq	-40(%rbp), %rax
	movq	-32(%rbp), %rcx
	movq	-56(%rbp), %rdx
	movq	%rax, 8(%rdx)
	movq	%rcx, 16(%rdx)
	movb	$0, (%rdx)
	jmp	LBB108_5
LBB108_4:
	movb	$0, -19(%rbp)
	movb	$0, -17(%rbp)
Ltmp185:
	callq	__ZN49_$LT$alloc..raw_vec..RawVec$LT$T$C$$u20$A$GT$$GT$16reserve_internal28_$u7b$$u7b$closure$u7d$$u7d$17h01d4395f4de66cffE
Ltmp186:
	movb	%al, -73(%rbp)
	jmp	LBB108_6
LBB108_5:
	testb	$1, -17(%rbp)
	jne	LBB108_13
	jmp	LBB108_7
LBB108_6:
	movb	-73(%rbp), %al
	andb	$1, %al
	movq	-56(%rbp), %rcx
	movb	%al, 1(%rcx)
	movb	$1, (%rcx)
	jmp	LBB108_5
LBB108_7:
	xorl	%eax, %eax
	movl	%eax, %ecx
	movl	$1, %eax
	movl	%eax, %edx
	cmpq	$0, -32(%rbp)
	cmoveq	%rdx, %rcx
	cmpq	$0, %rcx
	je	LBB108_15
	jmp	LBB108_17
LBB108_8:
	testb	$1, -18(%rbp)
	je	LBB108_1
	movb	$0, -18(%rbp)
	jmp	LBB108_1
LBB108_10:
	testb	$1, -19(%rbp)
	je	LBB108_1
	movb	$0, -19(%rbp)
	jmp	LBB108_1
LBB108_12:
	xorl	%eax, %eax
	movl	%eax, %ecx
	movl	$1, %eax
	movl	%eax, %edx
	cmpq	$0, -32(%rbp)
	cmoveq	%rdx, %rcx
	cmpq	$0, %rcx
	je	LBB108_8
	jmp	LBB108_10
LBB108_13:
	movb	$0, -17(%rbp)
	jmp	LBB108_7
LBB108_14:
	movq	-48(%rbp), %rax
	addq	$80, %rsp
	popq	%rbp
	retq
LBB108_15:
	testb	$1, -18(%rbp)
	je	LBB108_14
	movb	$0, -18(%rbp)
	jmp	LBB108_14
LBB108_17:
	testb	$1, -19(%rbp)
	je	LBB108_14
	movb	$0, -19(%rbp)
	jmp	LBB108_14
LBB108_19:
Ltmp187:
	movl	%edx, %ecx
	movq	%rax, -16(%rbp)
	movl	%ecx, -8(%rbp)
	jmp	LBB108_12
Lfunc_end20:
	.cfi_endproc
	.section	__TEXT,__gcc_except_tab
	.p2align	2
GCC_except_table108:
Lexception20:
	.byte	255
	.byte	255
	.byte	1
	.uleb128 Lcst_end20-Lcst_begin20
Lcst_begin20:
	.uleb128 Lfunc_begin20-Lfunc_begin20
	.uleb128 Ltmp185-Lfunc_begin20
	.byte	0
	.byte	0
	.uleb128 Ltmp185-Lfunc_begin20
	.uleb128 Ltmp186-Ltmp185
	.uleb128 Ltmp187-Lfunc_begin20
	.byte	0
Lcst_end20:
	.p2align	2

	.section	__TEXT,__text,regular,pure_instructions
	.p2align	4, 0x90
__ZN47_$LT$core..result..Result$LT$T$C$$u20$E$GT$$GT$7map_err17hfa532ee4ba2265e0E:
Lfunc_begin21:
	.cfi_startproc
	.cfi_personality 155, _rust_eh_personality
	.cfi_lsda 16, Lexception21
	pushq	%rbp
	.cfi_def_cfa_offset 16
	.cfi_offset %rbp, -16
	movq	%rsp, %rbp
	.cfi_def_cfa_register %rbp
	subq	$80, %rsp
	movq	%rdi, %rax
	movq	%rsi, -40(%rbp)
	movq	%rdx, -32(%rbp)
	movb	$0, -18(%rbp)
	movb	$0, -19(%rbp)
	movb	$0, -17(%rbp)
	movb	$1, -19(%rbp)
	movb	$1, -18(%rbp)
	movb	$1, -17(%rbp)
	movq	-32(%rbp), %rdx
	testq	%rdx, %rdx
	sete	%cl
	movzbl	%cl, %r8d
	movl	%r8d, %edx
	movq	%rax, -48(%rbp)
	movq	%rdi, -56(%rbp)
	movq	%rdx, -64(%rbp)
	jne	LBB109_3
	jmp	LBB109_20
LBB109_20:
	movq	-64(%rbp), %rax
	subq	$1, %rax
	movq	%rax, -72(%rbp)
	je	LBB109_4
	jmp	LBB109_2
LBB109_1:
	movq	-16(%rbp), %rdi
	callq	__Unwind_Resume
	ud2
LBB109_2:
	ud2
LBB109_3:
	movb	$0, -18(%rbp)
	movq	-40(%rbp), %rax
	movq	-32(%rbp), %rcx
	movq	-56(%rbp), %rdx
	movq	%rax, 8(%rdx)
	movq	%rcx, 16(%rdx)
	movb	$0, (%rdx)
	jmp	LBB109_5
LBB109_4:
	movb	$0, -19(%rbp)
	movb	$0, -17(%rbp)
Ltmp188:
	callq	__ZN49_$LT$alloc..raw_vec..RawVec$LT$T$C$$u20$A$GT$$GT$16reserve_internal28_$u7b$$u7b$closure$u7d$$u7d$17hfbccd4c10f110820E
Ltmp189:
	movb	%al, -73(%rbp)
	jmp	LBB109_6
LBB109_5:
	testb	$1, -17(%rbp)
	jne	LBB109_13
	jmp	LBB109_7
LBB109_6:
	movb	-73(%rbp), %al
	andb	$1, %al
	movq	-56(%rbp), %rcx
	movb	%al, 1(%rcx)
	movb	$1, (%rcx)
	jmp	LBB109_5
LBB109_7:
	xorl	%eax, %eax
	movl	%eax, %ecx
	movl	$1, %eax
	movl	%eax, %edx
	cmpq	$0, -32(%rbp)
	cmoveq	%rdx, %rcx
	cmpq	$0, %rcx
	je	LBB109_15
	jmp	LBB109_17
LBB109_8:
	testb	$1, -18(%rbp)
	je	LBB109_1
	movb	$0, -18(%rbp)
	jmp	LBB109_1
LBB109_10:
	testb	$1, -19(%rbp)
	je	LBB109_1
	movb	$0, -19(%rbp)
	jmp	LBB109_1
LBB109_12:
	xorl	%eax, %eax
	movl	%eax, %ecx
	movl	$1, %eax
	movl	%eax, %edx
	cmpq	$0, -32(%rbp)
	cmoveq	%rdx, %rcx
	cmpq	$0, %rcx
	je	LBB109_8
	jmp	LBB109_10
LBB109_13:
	movb	$0, -17(%rbp)
	jmp	LBB109_7
LBB109_14:
	movq	-48(%rbp), %rax
	addq	$80, %rsp
	popq	%rbp
	retq
LBB109_15:
	testb	$1, -18(%rbp)
	je	LBB109_14
	movb	$0, -18(%rbp)
	jmp	LBB109_14
LBB109_17:
	testb	$1, -19(%rbp)
	je	LBB109_14
	movb	$0, -19(%rbp)
	jmp	LBB109_14
LBB109_19:
Ltmp190:
	movl	%edx, %ecx
	movq	%rax, -16(%rbp)
	movl	%ecx, -8(%rbp)
	jmp	LBB109_12
Lfunc_end21:
	.cfi_endproc
	.section	__TEXT,__gcc_except_tab
	.p2align	2
GCC_except_table109:
Lexception21:
	.byte	255
	.byte	255
	.byte	1
	.uleb128 Lcst_end21-Lcst_begin21
Lcst_begin21:
	.uleb128 Lfunc_begin21-Lfunc_begin21
	.uleb128 Ltmp188-Lfunc_begin21
	.byte	0
	.byte	0
	.uleb128 Ltmp188-Lfunc_begin21
	.uleb128 Ltmp189-Ltmp188
	.uleb128 Ltmp190-Lfunc_begin21
	.byte	0
Lcst_end21:
	.p2align	2

	.section	__TEXT,__text,regular,pure_instructions
	.p2align	4, 0x90
__ZN47_$LT$core..result..Result$LT$T$C$$u20$E$GT$$GT$8and_then17h81b3ca7524688b72E:
Lfunc_begin22:
	.cfi_startproc
	.cfi_personality 155, _rust_eh_personality
	.cfi_lsda 16, Lexception22
	pushq	%rbp
	.cfi_def_cfa_offset 16
	.cfi_offset %rbp, -16
	movq	%rsp, %rbp
	.cfi_def_cfa_register %rbp
	subq	$112, %rsp
	movq	%rdi, %rax
	movb	$0, -19(%rbp)
	movb	$0, -18(%rbp)
	movb	$0, -17(%rbp)
	movb	$1, -19(%rbp)
	movb	$1, -18(%rbp)
	movb	$1, -17(%rbp)
	movq	(%rsi), %rcx
	testq	%rcx, %rcx
	movq	%rax, -72(%rbp)
	movq	%rsi, -80(%rbp)
	movq	%rdi, -88(%rbp)
	movq	%rcx, -96(%rbp)
	je	LBB110_3
	jmp	LBB110_20
LBB110_20:
	movq	-96(%rbp), %rax
	subq	$1, %rax
	movq	%rax, -104(%rbp)
	je	LBB110_4
	jmp	LBB110_2
LBB110_1:
	movq	-16(%rbp), %rdi
	callq	__Unwind_Resume
	ud2
LBB110_2:
	ud2
LBB110_3:
	movb	$0, -18(%rbp)
	movq	-80(%rbp), %rax
	movq	8(%rax), %rcx
	movb	$0, -17(%rbp)
	movq	%rcx, -48(%rbp)
	movq	-48(%rbp), %rsi
Ltmp191:
	movq	-88(%rbp), %rdi
	callq	__ZN3std2io16append_to_string28_$u7b$$u7b$closure$u7d$$u7d$17hbb74c82b477f0169E
Ltmp192:
	jmp	LBB110_6
LBB110_4:
	movb	$0, -19(%rbp)
	movq	-80(%rbp), %rax
	movq	8(%rax), %rcx
	movq	%rcx, -64(%rbp)
	movq	16(%rax), %rcx
	movq	%rcx, -56(%rbp)
	movq	-64(%rbp), %rcx
	movq	%rcx, -40(%rbp)
	movq	-56(%rbp), %rcx
	movq	%rcx, -32(%rbp)
	movq	-40(%rbp), %rcx
	movq	-88(%rbp), %rdx
	movq	%rcx, 8(%rdx)
	movq	-32(%rbp), %rcx
	movq	%rcx, 16(%rdx)
	movq	$1, (%rdx)
LBB110_5:
	testb	$1, -17(%rbp)
	jne	LBB110_13
	jmp	LBB110_7
LBB110_6:
	jmp	LBB110_5
LBB110_7:
	movq	-80(%rbp), %rax
	cmpq	$0, (%rax)
	je	LBB110_15
	jmp	LBB110_17
LBB110_8:
	testb	$1, -18(%rbp)
	je	LBB110_1
	movb	$0, -18(%rbp)
	jmp	LBB110_1
LBB110_10:
	testb	$1, -19(%rbp)
	je	LBB110_1
	movb	$0, -19(%rbp)
	movq	-80(%rbp), %rax
	addq	$8, %rax
	movq	%rax, %rdi
	callq	__ZN4core3ptr13drop_in_place17hafa2f25152a694c3E
	jmp	LBB110_1
LBB110_12:
	movq	-80(%rbp), %rax
	cmpq	$0, (%rax)
	je	LBB110_8
	jmp	LBB110_10
LBB110_13:
	movb	$0, -17(%rbp)
	jmp	LBB110_7
LBB110_14:
	movq	-72(%rbp), %rax
	addq	$112, %rsp
	popq	%rbp
	retq
LBB110_15:
	testb	$1, -18(%rbp)
	je	LBB110_14
	movb	$0, -18(%rbp)
	jmp	LBB110_14
LBB110_17:
	testb	$1, -19(%rbp)
	je	LBB110_14
	movb	$0, -19(%rbp)
	movq	-80(%rbp), %rax
	addq	$8, %rax
	movq	%rax, %rdi
	callq	__ZN4core3ptr13drop_in_place17hafa2f25152a694c3E
	jmp	LBB110_14
LBB110_19:
Ltmp193:
	movl	%edx, %ecx
	movq	%rax, -16(%rbp)
	movl	%ecx, -8(%rbp)
	jmp	LBB110_12
Lfunc_end22:
	.cfi_endproc
	.section	__TEXT,__gcc_except_tab
	.p2align	2
GCC_except_table110:
Lexception22:
	.byte	255
	.byte	255
	.byte	1
	.uleb128 Lcst_end22-Lcst_begin22
Lcst_begin22:
	.uleb128 Lfunc_begin22-Lfunc_begin22
	.uleb128 Ltmp191-Lfunc_begin22
	.byte	0
	.byte	0
	.uleb128 Ltmp191-Lfunc_begin22
	.uleb128 Ltmp192-Ltmp191
	.uleb128 Ltmp193-Lfunc_begin22
	.byte	0
	.uleb128 Ltmp192-Lfunc_begin22
	.uleb128 Lfunc_end22-Ltmp192
	.byte	0
	.byte	0
Lcst_end22:
	.p2align	2

	.section	__TEXT,__text,regular,pure_instructions
	.p2align	4, 0x90
__ZN49_$LT$alloc..raw_vec..RawVec$LT$T$C$$u20$A$GT$$GT$11allocate_in17h115772973e7f2a2aE:
Lfunc_begin23:
	.cfi_startproc
	.cfi_personality 155, _rust_eh_personality
	.cfi_lsda 16, Lexception23
	pushq	%rbp
	.cfi_def_cfa_offset 16
	.cfi_offset %rbp, -16
	movq	%rsp, %rbp
	.cfi_def_cfa_register %rbp
	subq	$224, %rsp
	movb	%sil, %al
Ltmp194:
	movb	%al, -73(%rbp)
	movq	%rdi, -88(%rbp)
	callq	__ZN4core3mem7size_of17hbd521d92caede32eE
Ltmp195:
	movq	%rax, -96(%rbp)
	jmp	LBB111_2
LBB111_1:
	movq	-16(%rbp), %rdi
	callq	__Unwind_Resume
	ud2
LBB111_2:
Ltmp196:
	movq	-88(%rbp), %rdi
	movq	-96(%rbp), %rsi
	callq	__ZN4core3num23_$LT$impl$u20$usize$GT$11checked_mul17hec6dd7893e35c5c1E
Ltmp197:
	movq	%rdx, -104(%rbp)
	movq	%rax, -112(%rbp)
	jmp	LBB111_4
LBB111_3:
	jmp	LBB111_1
LBB111_4:
Ltmp198:
	movq	-112(%rbp), %rdi
	movq	-104(%rbp), %rsi
	callq	__ZN38_$LT$core..option..Option$LT$T$GT$$GT$14unwrap_or_else17hc8d7de81189eddc6E
Ltmp199:
	movq	%rax, -120(%rbp)
	jmp	LBB111_5
LBB111_5:
Ltmp200:
	movq	-120(%rbp), %rdi
	callq	__ZN5alloc7raw_vec11alloc_guard17ha0ed221f2a2b3615E
Ltmp201:
	movb	%al, -121(%rbp)
	jmp	LBB111_6
LBB111_6:
Ltmp202:
	movb	-121(%rbp), %al
	movzbl	%al, %edi
	callq	__ZN47_$LT$core..result..Result$LT$T$C$$u20$E$GT$$GT$14unwrap_or_else17hfdc3dcac590bc76cE
Ltmp203:
	jmp	LBB111_7
LBB111_7:
	movq	-120(%rbp), %rax
	cmpq	$0, %rax
	jne	LBB111_9
Ltmp218:
	callq	__ZN36_$LT$core..ptr..NonNull$LT$T$GT$$GT$8dangling17hfa7e56e578e2543bE
Ltmp219:
	movq	%rax, -136(%rbp)
	jmp	LBB111_24
LBB111_9:
Ltmp204:
	callq	__ZN4core3mem8align_of17hac49404a9d1fa1e4E
Ltmp205:
	movq	%rax, -144(%rbp)
	jmp	LBB111_10
LBB111_10:
Ltmp206:
	movq	-120(%rbp), %rdi
	movq	-144(%rbp), %rsi
	callq	__ZN4core5alloc6Layout15from_size_align17h7f624573f7d769d4E
Ltmp207:
	movq	%rdx, -152(%rbp)
	movq	%rax, -160(%rbp)
	jmp	LBB111_11
LBB111_11:
Ltmp208:
	movq	-160(%rbp), %rdi
	movq	-152(%rbp), %rsi
	callq	__ZN47_$LT$core..result..Result$LT$T$C$$u20$E$GT$$GT$6unwrap17hab7c457b9258e8adE
Ltmp209:
	movq	%rdx, -168(%rbp)
	movq	%rax, -176(%rbp)
	jmp	LBB111_12
LBB111_12:
	movb	-73(%rbp), %al
	testb	$1, %al
	jne	LBB111_13
	jmp	LBB111_14
LBB111_13:
Ltmp212:
	leaq	-72(%rbp), %rdi
	movq	-176(%rbp), %rsi
	movq	-168(%rbp), %rdx
	callq	__ZN59_$LT$alloc..alloc..Global$u20$as$u20$core..alloc..Alloc$GT$12alloc_zeroed17h2c6d899f5cc6494bE
Ltmp213:
	movq	%rax, -184(%rbp)
	jmp	LBB111_15
LBB111_14:
Ltmp210:
	leaq	-72(%rbp), %rdi
	movq	-176(%rbp), %rsi
	movq	-168(%rbp), %rdx
	callq	__ZN59_$LT$alloc..alloc..Global$u20$as$u20$core..alloc..Alloc$GT$5alloc17h6bc607590b381e70E
Ltmp211:
	movq	%rax, -192(%rbp)
	jmp	LBB111_16
LBB111_15:
	movq	-184(%rbp), %rax
	movq	%rax, -24(%rbp)
	jmp	LBB111_17
LBB111_16:
	movq	-192(%rbp), %rax
	movq	%rax, -24(%rbp)
LBB111_17:
	movq	-24(%rbp), %rax
	testq	%rax, %rax
	sete	%cl
	movzbl	%cl, %edx
	movl	%edx, %eax
	movq	%rax, -200(%rbp)
	jne	LBB111_20
	jmp	LBB111_27
LBB111_27:
	movq	-200(%rbp), %rax
	subq	$1, %rax
	movq	%rax, -208(%rbp)
	jne	LBB111_19
	jmp	LBB111_18
LBB111_18:
Ltmp214:
	movq	-176(%rbp), %rdi
	movq	-168(%rbp), %rsi
	callq	__ZN5alloc5alloc18handle_alloc_error17h6c81acad613628fbE
Ltmp215:
	jmp	LBB111_26
LBB111_19:
	ud2
LBB111_20:
	movq	-24(%rbp), %rdi
Ltmp216:
	callq	__ZN36_$LT$core..ptr..NonNull$LT$T$GT$$GT$4cast17h32fe31ab7f97a563E
Ltmp217:
	movq	%rax, -216(%rbp)
	jmp	LBB111_21
LBB111_21:
	movq	-216(%rbp), %rax
	movq	%rax, -32(%rbp)
LBB111_22:
	movq	-32(%rbp), %rdi
Ltmp220:
	callq	__ZN50_$LT$T$u20$as$u20$core..convert..Into$LT$U$GT$$GT$4into17h1f51cc9cd0d47d8dE
Ltmp221:
	movq	%rax, -224(%rbp)
	jmp	LBB111_23
LBB111_23:
	movq	-224(%rbp), %rax
	movq	%rax, -64(%rbp)
	movq	-88(%rbp), %rcx
	movq	%rcx, -56(%rbp)
	movq	-64(%rbp), %rax
	movq	-56(%rbp), %rdx
	addq	$224, %rsp
	popq	%rbp
	retq
LBB111_24:
	movq	-136(%rbp), %rax
	movq	%rax, -32(%rbp)
	jmp	LBB111_22
LBB111_25:
Ltmp222:
	movl	%edx, %ecx
	movq	%rax, -16(%rbp)
	movl	%ecx, -8(%rbp)
	jmp	LBB111_3
LBB111_26:
	ud2
Lfunc_end23:
	.cfi_endproc
	.section	__TEXT,__gcc_except_tab
	.p2align	2
GCC_except_table111:
Lexception23:
	.byte	255
	.byte	255
	.byte	1
	.uleb128 Lcst_end23-Lcst_begin23
Lcst_begin23:
	.uleb128 Ltmp194-Lfunc_begin23
	.uleb128 Ltmp195-Ltmp194
	.uleb128 Ltmp222-Lfunc_begin23
	.byte	0
	.uleb128 Ltmp195-Lfunc_begin23
	.uleb128 Ltmp196-Ltmp195
	.byte	0
	.byte	0
	.uleb128 Ltmp196-Lfunc_begin23
	.uleb128 Ltmp221-Ltmp196
	.uleb128 Ltmp222-Lfunc_begin23
	.byte	0
Lcst_end23:
	.p2align	2

	.section	__TEXT,__text,regular,pure_instructions
	.p2align	4, 0x90
__ZN49_$LT$alloc..raw_vec..RawVec$LT$T$C$$u20$A$GT$$GT$11allocate_in28_$u7b$$u7b$closure$u7d$$u7d$17h67c25c1444990b88E:
	.cfi_startproc
	pushq	%rbp
	.cfi_def_cfa_offset 16
	.cfi_offset %rbp, -16
	movq	%rsp, %rbp
	.cfi_def_cfa_register %rbp
	callq	__ZN5alloc7raw_vec17capacity_overflow17hbe1df8795eb99c83E
	.cfi_endproc

	.p2align	4, 0x90
__ZN49_$LT$alloc..raw_vec..RawVec$LT$T$C$$u20$A$GT$$GT$11allocate_in28_$u7b$$u7b$closure$u7d$$u7d$17hd761884b79c1d600E:
	.cfi_startproc
	pushq	%rbp
	.cfi_def_cfa_offset 16
	.cfi_offset %rbp, -16
	movq	%rsp, %rbp
	.cfi_def_cfa_register %rbp
	callq	__ZN5alloc7raw_vec17capacity_overflow17hbe1df8795eb99c83E
	.cfi_endproc

	.p2align	4, 0x90
__ZN49_$LT$alloc..raw_vec..RawVec$LT$T$C$$u20$A$GT$$GT$14current_layout17h0061fc636db4c3ebE:
	.cfi_startproc
	pushq	%rbp
	.cfi_def_cfa_offset 16
	.cfi_offset %rbp, -16
	movq	%rsp, %rbp
	.cfi_def_cfa_register %rbp
	subq	$64, %rsp
	cmpq	$0, 8(%rdi)
	movq	%rdi, -24(%rbp)
	jne	LBB114_2
	movq	$0, -8(%rbp)
	jmp	LBB114_6
LBB114_2:
	callq	__ZN4core3mem8align_of17h195604b2ef2f3f03E
	movq	%rax, -32(%rbp)
	callq	__ZN4core3mem7size_of17hc85f0091669efbbaE
	movq	%rax, -40(%rbp)
	movq	-40(%rbp), %rax
	movq	-24(%rbp), %rcx
	imulq	8(%rcx), %rax
	movq	%rax, %rdi
	movq	-32(%rbp), %rsi
	callq	__ZN4core5alloc6Layout25from_size_align_unchecked17h7b2f970ee84a6e93E
	movq	%rax, -48(%rbp)
	movq	%rdx, -56(%rbp)
	movq	-48(%rbp), %rax
	movq	%rax, -16(%rbp)
	movq	-56(%rbp), %rcx
	movq	%rcx, -8(%rbp)
LBB114_6:
	movq	-16(%rbp), %rax
	movq	-8(%rbp), %rdx
	addq	$64, %rsp
	popq	%rbp
	retq
	.cfi_endproc

	.p2align	4, 0x90
__ZN49_$LT$alloc..raw_vec..RawVec$LT$T$C$$u20$A$GT$$GT$14current_layout17h7a9577cdbf1ba780E:
	.cfi_startproc
	pushq	%rbp
	.cfi_def_cfa_offset 16
	.cfi_offset %rbp, -16
	movq	%rsp, %rbp
	.cfi_def_cfa_register %rbp
	subq	$64, %rsp
	cmpq	$0, 8(%rdi)
	movq	%rdi, -24(%rbp)
	jne	LBB115_2
	movq	$0, -8(%rbp)
	jmp	LBB115_6
LBB115_2:
	callq	__ZN4core3mem8align_of17hac49404a9d1fa1e4E
	movq	%rax, -32(%rbp)
	callq	__ZN4core3mem7size_of17hbd521d92caede32eE
	movq	%rax, -40(%rbp)
	movq	-40(%rbp), %rax
	movq	-24(%rbp), %rcx
	imulq	8(%rcx), %rax
	movq	%rax, %rdi
	movq	-32(%rbp), %rsi
	callq	__ZN4core5alloc6Layout25from_size_align_unchecked17h7b2f970ee84a6e93E
	movq	%rax, -48(%rbp)
	movq	%rdx, -56(%rbp)
	movq	-48(%rbp), %rax
	movq	%rax, -16(%rbp)
	movq	-56(%rbp), %rcx
	movq	%rcx, -8(%rbp)
LBB115_6:
	movq	-16(%rbp), %rax
	movq	-8(%rbp), %rdx
	addq	$64, %rsp
	popq	%rbp
	retq
	.cfi_endproc

	.p2align	4, 0x90
__ZN49_$LT$alloc..raw_vec..RawVec$LT$T$C$$u20$A$GT$$GT$14dealloc_buffer17h349d39ebd75092b3E:
	.cfi_startproc
	pushq	%rbp
	.cfi_def_cfa_offset 16
	.cfi_offset %rbp, -16
	movq	%rsp, %rbp
	.cfi_def_cfa_register %rbp
	subq	$80, %rsp
	movq	%rdi, -24(%rbp)
	callq	__ZN4core3mem7size_of17hc85f0091669efbbaE
	movq	%rax, -32(%rbp)
	movq	-32(%rbp), %rax
	cmpq	$0, %rax
	je	LBB116_9
	movq	-24(%rbp), %rdi
	callq	__ZN49_$LT$alloc..raw_vec..RawVec$LT$T$C$$u20$A$GT$$GT$14current_layout17h0061fc636db4c3ebE
	movq	%rdx, -8(%rbp)
	movq	%rax, -16(%rbp)
	movl	$1, %eax
	movl	%eax, %ecx
	xorl	%eax, %eax
	movl	%eax, %edx
	cmpq	$0, -8(%rbp)
	cmoveq	%rdx, %rcx
	cmpq	$1, %rcx
	jne	LBB116_5
	movq	-16(%rbp), %rdx
	movq	-8(%rbp), %rcx
	movq	-24(%rbp), %rax
	movq	-24(%rbp), %rsi
	movq	(%rsi), %rdi
	movq	%rdx, -40(%rbp)
	movq	%rcx, -48(%rbp)
	movq	%rax, -56(%rbp)
	callq	__ZN101_$LT$core..ptr..NonNull$LT$T$GT$$u20$as$u20$core..convert..From$LT$core..ptr..Unique$LT$T$GT$$GT$$GT$4from17hffa6361fb8979c9fE
	movq	%rax, -64(%rbp)
	jmp	LBB116_6
LBB116_5:
	jmp	LBB116_9
LBB116_6:
	movq	-64(%rbp), %rdi
	callq	__ZN36_$LT$core..ptr..NonNull$LT$T$GT$$GT$4cast17hd4917807fdeac476E
	movq	%rax, -72(%rbp)
	movq	-56(%rbp), %rdi
	movq	-72(%rbp), %rsi
	movq	-40(%rbp), %rdx
	movq	-48(%rbp), %rcx
	callq	__ZN59_$LT$alloc..alloc..Global$u20$as$u20$core..alloc..Alloc$GT$7dealloc17hfb52b4c9845472fdE
	jmp	LBB116_5
LBB116_9:
	addq	$80, %rsp
	popq	%rbp
	retq
	.cfi_endproc

	.p2align	4, 0x90
__ZN49_$LT$alloc..raw_vec..RawVec$LT$T$C$$u20$A$GT$$GT$14dealloc_buffer17hbd2d2fddbfd4931bE:
	.cfi_startproc
	pushq	%rbp
	.cfi_def_cfa_offset 16
	.cfi_offset %rbp, -16
	movq	%rsp, %rbp
	.cfi_def_cfa_register %rbp
	subq	$80, %rsp
	movq	%rdi, -24(%rbp)
	callq	__ZN4core3mem7size_of17hbd521d92caede32eE
	movq	%rax, -32(%rbp)
	movq	-32(%rbp), %rax
	cmpq	$0, %rax
	je	LBB117_9
	movq	-24(%rbp), %rdi
	callq	__ZN49_$LT$alloc..raw_vec..RawVec$LT$T$C$$u20$A$GT$$GT$14current_layout17h7a9577cdbf1ba780E
	movq	%rdx, -8(%rbp)
	movq	%rax, -16(%rbp)
	movl	$1, %eax
	movl	%eax, %ecx
	xorl	%eax, %eax
	movl	%eax, %edx
	cmpq	$0, -8(%rbp)
	cmoveq	%rdx, %rcx
	cmpq	$1, %rcx
	jne	LBB117_5
	movq	-16(%rbp), %rdx
	movq	-8(%rbp), %rcx
	movq	-24(%rbp), %rax
	movq	-24(%rbp), %rsi
	movq	(%rsi), %rdi
	movq	%rdx, -40(%rbp)
	movq	%rcx, -48(%rbp)
	movq	%rax, -56(%rbp)
	callq	__ZN101_$LT$core..ptr..NonNull$LT$T$GT$$u20$as$u20$core..convert..From$LT$core..ptr..Unique$LT$T$GT$$GT$$GT$4from17h8b93a8fae7ccb5b5E
	movq	%rax, -64(%rbp)
	jmp	LBB117_6
LBB117_5:
	jmp	LBB117_9
LBB117_6:
	movq	-64(%rbp), %rdi
	callq	__ZN36_$LT$core..ptr..NonNull$LT$T$GT$$GT$4cast17h8c3ade831783f3ecE
	movq	%rax, -72(%rbp)
	movq	-56(%rbp), %rdi
	movq	-72(%rbp), %rsi
	movq	-40(%rbp), %rdx
	movq	-48(%rbp), %rcx
	callq	__ZN59_$LT$alloc..alloc..Global$u20$as$u20$core..alloc..Alloc$GT$7dealloc17hfb52b4c9845472fdE
	jmp	LBB117_5
LBB117_9:
	addq	$80, %rsp
	popq	%rbp
	retq
	.cfi_endproc

	.p2align	4, 0x90
__ZN49_$LT$alloc..raw_vec..RawVec$LT$T$C$$u20$A$GT$$GT$16reserve_internal17h39614bad0d6ad2bbE:
	.cfi_startproc
	pushq	%rbp
	.cfi_def_cfa_offset 16
	.cfi_offset %rbp, -16
	movq	%rsp, %rbp
	.cfi_def_cfa_register %rbp
	subq	$544, %rsp
	movb	%r8b, %al
	movb	%cl, %r9b
	andb	$1, %al
	movb	%al, -226(%rbp)
	movq	%rsi, -240(%rbp)
	movq	%rdi, -248(%rbp)
	movb	%r9b, -249(%rbp)
	movq	%rdx, -264(%rbp)
	callq	__ZN4core3mem7size_of17hc85f0091669efbbaE
	cmpq	$0, %rax
	jne	LBB118_2
	movq	$-1, -8(%rbp)
	jmp	LBB118_3
LBB118_2:
	movq	-248(%rbp), %rax
	movq	8(%rax), %rcx
	movq	%rcx, -8(%rbp)
LBB118_3:
	movq	-8(%rbp), %rdi
	movq	%rdi, -272(%rbp)
	movq	-272(%rbp), %rdi
	movq	-240(%rbp), %rsi
	callq	__ZN4core3num23_$LT$impl$u20$usize$GT$12wrapping_sub17h678b23997a3005c9E
	movq	%rax, -280(%rbp)
	movq	-280(%rbp), %rax
	movq	-264(%rbp), %rcx
	cmpq	%rcx, %rax
	jb	LBB118_7
	movb	$2, -225(%rbp)
	jmp	LBB118_8
LBB118_7:
	movzbl	-226(%rbp), %eax
	movl	%eax, %ecx
	movb	%cl, %dl
	testb	$1, %dl
	movq	%rcx, -288(%rbp)
	je	LBB118_9
	jmp	LBB118_61
LBB118_61:
	movq	-288(%rbp), %rax
	subq	$1, %rax
	movq	%rax, -296(%rbp)
	je	LBB118_10
	jmp	LBB118_11
LBB118_8:
	movb	-225(%rbp), %al
	addq	$544, %rsp
	popq	%rbp
	retq
LBB118_9:
	movq	-240(%rbp), %rdi
	movq	-264(%rbp), %rsi
	callq	__ZN4core3num23_$LT$impl$u20$usize$GT$11checked_add17h214fec1ff95646cfE
	movq	%rax, -304(%rbp)
	movq	%rdx, -312(%rbp)
	jmp	LBB118_13
LBB118_10:
	leaq	-152(%rbp), %rdi
	movq	-248(%rbp), %rsi
	movq	-240(%rbp), %rdx
	movq	-264(%rbp), %rcx
	callq	__ZN49_$LT$alloc..raw_vec..RawVec$LT$T$C$$u20$A$GT$$GT$18amortized_new_size17h195e09ad049dfebfE
	jmp	LBB118_21
LBB118_11:
	ud2
LBB118_12:
	movq	-216(%rbp), %rdi
	callq	__ZN4core5alloc6Layout5array17h411520eb225d94c1E
	movq	%rax, -320(%rbp)
	movq	%rdx, -328(%rbp)
	jmp	LBB118_27
LBB118_13:
	movb	$0, -169(%rbp)
	movb	-169(%rbp), %al
	andb	$1, %al
	leaq	-192(%rbp), %rdi
	movq	-304(%rbp), %rsi
	movq	-312(%rbp), %rdx
	movzbl	%al, %ecx
	callq	__ZN38_$LT$core..option..Option$LT$T$GT$$GT$5ok_or17h6f062194106b3641E
	leaq	-208(%rbp), %rdi
	leaq	-192(%rbp), %rsi
	callq	__ZN78_$LT$core..result..Result$LT$T$C$$u20$E$GT$$u20$as$u20$core..ops..try..Try$GT$11into_result17hdfe46e975f9cf8fbE
	movzbl	-208(%rbp), %eax
	movl	%eax, %ecx
	movb	%cl, %dl
	testb	$1, %dl
	movq	%rcx, -336(%rbp)
	je	LBB118_16
	jmp	LBB118_63
LBB118_63:
	movq	-336(%rbp), %rax
	subq	$1, %rax
	movq	%rax, -344(%rbp)
	je	LBB118_17
	jmp	LBB118_11
LBB118_16:
	movq	-200(%rbp), %rax
	movq	%rax, -216(%rbp)
	jmp	LBB118_12
LBB118_17:
	movb	-207(%rbp), %al
	andb	$1, %al
	movzbl	%al, %edi
	callq	__ZN50_$LT$T$u20$as$u20$core..convert..From$LT$T$GT$$GT$4from17h1440dea1b78bc8dbE
	movb	%al, -345(%rbp)
	movb	-345(%rbp), %al
	movzbl	%al, %ecx
	andl	$1, %ecx
	movl	%ecx, %edi
	callq	__ZN78_$LT$core..result..Result$LT$T$C$$u20$E$GT$$u20$as$u20$core..ops..try..Try$GT$10from_error17h93c8c255209dafcaE
	movb	%al, -225(%rbp)
	jmp	LBB118_20
LBB118_20:
	jmp	LBB118_8
LBB118_21:
	leaq	-168(%rbp), %rdi
	leaq	-152(%rbp), %rsi
	callq	__ZN78_$LT$core..result..Result$LT$T$C$$u20$E$GT$$u20$as$u20$core..ops..try..Try$GT$11into_result17hdfe46e975f9cf8fbE
	movzbl	-168(%rbp), %eax
	movl	%eax, %ecx
	movb	%cl, %dl
	testb	$1, %dl
	movq	%rcx, -360(%rbp)
	je	LBB118_23
	jmp	LBB118_62
LBB118_62:
	movq	-360(%rbp), %rax
	subq	$1, %rax
	movq	%rax, -368(%rbp)
	je	LBB118_24
	jmp	LBB118_11
LBB118_23:
	movq	-160(%rbp), %rax
	movq	%rax, -216(%rbp)
	jmp	LBB118_12
LBB118_24:
	movb	-167(%rbp), %al
	andb	$1, %al
	movzbl	%al, %edi
	callq	__ZN50_$LT$T$u20$as$u20$core..convert..From$LT$T$GT$$GT$4from17h1440dea1b78bc8dbE
	movb	%al, -369(%rbp)
	movb	-369(%rbp), %al
	movzbl	%al, %ecx
	andl	$1, %ecx
	movl	%ecx, %edi
	callq	__ZN78_$LT$core..result..Result$LT$T$C$$u20$E$GT$$u20$as$u20$core..ops..try..Try$GT$10from_error17h93c8c255209dafcaE
	movb	%al, -225(%rbp)
	jmp	LBB118_20
LBB118_27:
	leaq	-96(%rbp), %rdi
	movq	-320(%rbp), %rsi
	movq	-328(%rbp), %rdx
	callq	__ZN47_$LT$core..result..Result$LT$T$C$$u20$E$GT$$GT$7map_err17h923ad2faeb4f5bf8E
	leaq	-120(%rbp), %rdi
	leaq	-96(%rbp), %rsi
	callq	__ZN78_$LT$core..result..Result$LT$T$C$$u20$E$GT$$u20$as$u20$core..ops..try..Try$GT$11into_result17h126a437d493fa9b1E
	movzbl	-120(%rbp), %eax
	movl	%eax, %ecx
	movb	%cl, %dl
	testb	$1, %dl
	movq	%rcx, -384(%rbp)
	je	LBB118_30
	jmp	LBB118_64
LBB118_64:
	movq	-384(%rbp), %rax
	subq	$1, %rax
	movq	%rax, -392(%rbp)
	je	LBB118_31
	jmp	LBB118_11
LBB118_30:
	movq	-112(%rbp), %rax
	movq	-104(%rbp), %rcx
	movq	%rax, -136(%rbp)
	movq	%rcx, -128(%rbp)
	leaq	-136(%rbp), %rdi
	callq	__ZN4core5alloc6Layout4size17h1766f3b7a37bc91dE
	movq	%rax, -400(%rbp)
	jmp	LBB118_35
LBB118_31:
	movb	-119(%rbp), %al
	andb	$1, %al
	movzbl	%al, %edi
	callq	__ZN50_$LT$T$u20$as$u20$core..convert..From$LT$T$GT$$GT$4from17h1440dea1b78bc8dbE
	movb	%al, -401(%rbp)
	movb	-401(%rbp), %al
	movzbl	%al, %ecx
	andl	$1, %ecx
	movl	%ecx, %edi
	callq	__ZN78_$LT$core..result..Result$LT$T$C$$u20$E$GT$$u20$as$u20$core..ops..try..Try$GT$10from_error17h93c8c255209dafcaE
	movb	%al, -225(%rbp)
	jmp	LBB118_34
LBB118_34:
	jmp	LBB118_20
LBB118_35:
	movq	-400(%rbp), %rdi
	callq	__ZN5alloc7raw_vec11alloc_guard17ha0ed221f2a2b3615E
	movb	%al, -402(%rbp)
	movb	-402(%rbp), %al
	movzbl	%al, %edi
	callq	__ZN78_$LT$core..result..Result$LT$T$C$$u20$E$GT$$u20$as$u20$core..ops..try..Try$GT$11into_result17h7a9f2583ca00197dE
	movb	%al, -65(%rbp)
	movb	-65(%rbp), %al
	subb	$2, %al
	setne	%cl
	movzbl	%cl, %edx
	movl	%edx, %esi
	movb	%al, -403(%rbp)
	movq	%rsi, -416(%rbp)
	je	LBB118_38
	jmp	LBB118_65
LBB118_65:
	movq	-416(%rbp), %rax
	subq	$1, %rax
	movq	%rax, -424(%rbp)
	je	LBB118_39
	jmp	LBB118_11
LBB118_38:
	movq	-248(%rbp), %rdi
	callq	__ZN49_$LT$alloc..raw_vec..RawVec$LT$T$C$$u20$A$GT$$GT$14current_layout17h0061fc636db4c3ebE
	movq	%rdx, -48(%rbp)
	movq	%rax, -56(%rbp)
	jmp	LBB118_42
LBB118_39:
	movb	-65(%rbp), %al
	andb	$1, %al
	movzbl	%al, %edi
	callq	__ZN50_$LT$T$u20$as$u20$core..convert..From$LT$T$GT$$GT$4from17h1440dea1b78bc8dbE
	movb	%al, -425(%rbp)
	movb	-425(%rbp), %al
	movzbl	%al, %ecx
	andl	$1, %ecx
	movl	%ecx, %edi
	callq	__ZN78_$LT$core..result..Result$LT$T$C$$u20$E$GT$$u20$as$u20$core..ops..try..Try$GT$10from_error17h93c8c255209dafcaE
	movb	%al, -225(%rbp)
	jmp	LBB118_34
LBB118_42:
	movq	-48(%rbp), %rax
	testq	%rax, %rax
	setne	%cl
	movzbl	%cl, %edx
	movl	%edx, %eax
	movq	%rax, -440(%rbp)
	je	LBB118_43
	jmp	LBB118_66
LBB118_66:
	movq	-440(%rbp), %rax
	subq	$1, %rax
	movq	%rax, -448(%rbp)
	je	LBB118_44
	jmp	LBB118_11
LBB118_43:
	movq	-248(%rbp), %rax
	movq	-136(%rbp), %rsi
	movq	-128(%rbp), %rdx
	movq	%rax, %rdi
	callq	__ZN59_$LT$alloc..alloc..Global$u20$as$u20$core..alloc..Alloc$GT$5alloc17h6bc607590b381e70E
	movq	%rax, -64(%rbp)
	jmp	LBB118_50
LBB118_44:
	movq	-56(%rbp), %rdx
	movq	-48(%rbp), %rcx
	movq	-248(%rbp), %rax
	movq	-248(%rbp), %rsi
	movq	(%rsi), %rdi
	movq	%rdx, -456(%rbp)
	movq	%rcx, -464(%rbp)
	movq	%rax, -472(%rbp)
	callq	__ZN101_$LT$core..ptr..NonNull$LT$T$GT$$u20$as$u20$core..convert..From$LT$core..ptr..Unique$LT$T$GT$$GT$$GT$4from17hffa6361fb8979c9fE
	movq	%rax, -480(%rbp)
	jmp	LBB118_46
LBB118_45:
	xorl	%eax, %eax
	movl	%eax, %ecx
	movl	$1, %eax
	movl	%eax, %edx
	leaq	-64(%rbp), %rsi
	movq	%rsi, -40(%rbp)
	movb	-249(%rbp), %dil
	andb	$1, %dil
	movb	%dil, -32(%rbp)
	movq	-40(%rbp), %rsi
	cmpq	$0, (%rsi)
	cmoveq	%rdx, %rcx
	cmpq	$1, %rcx
	je	LBB118_53
	jmp	LBB118_51
LBB118_46:
	movq	-480(%rbp), %rdi
	callq	__ZN36_$LT$core..ptr..NonNull$LT$T$GT$$GT$4cast17hd4917807fdeac476E
	movq	%rax, -488(%rbp)
	leaq	-136(%rbp), %rdi
	callq	__ZN4core5alloc6Layout4size17h1766f3b7a37bc91dE
	movq	%rax, -496(%rbp)
	movq	-472(%rbp), %rdi
	movq	-488(%rbp), %rsi
	movq	-456(%rbp), %rdx
	movq	-464(%rbp), %rcx
	movq	-496(%rbp), %r8
	callq	__ZN59_$LT$alloc..alloc..Global$u20$as$u20$core..alloc..Alloc$GT$7realloc17hf2dc03ff186bb756E
	movq	%rax, -64(%rbp)
	jmp	LBB118_45
LBB118_50:
	jmp	LBB118_45
LBB118_51:
	movq	-64(%rbp), %rdi
	callq	__ZN78_$LT$core..result..Result$LT$T$C$$u20$E$GT$$u20$as$u20$core..ops..try..Try$GT$11into_result17hd286e3c9c3590504E
	movq	%rax, -24(%rbp)
	jmp	LBB118_54
LBB118_52:
	movq	-136(%rbp), %rdi
	movq	-128(%rbp), %rsi
	callq	__ZN5alloc5alloc18handle_alloc_error17h6c81acad613628fbE
LBB118_53:
	movb	-32(%rbp), %al
	andb	$1, %al
	movzbl	%al, %ecx
	movl	%ecx, %edx
	cmpq	$1, %rdx
	je	LBB118_52
	jmp	LBB118_51
LBB118_54:
	movq	-24(%rbp), %rax
	testq	%rax, %rax
	sete	%cl
	movzbl	%cl, %edx
	movl	%edx, %eax
	movq	%rax, -504(%rbp)
	jne	LBB118_55
	jmp	LBB118_67
LBB118_67:
	movq	-504(%rbp), %rax
	subq	$1, %rax
	movq	%rax, -512(%rbp)
	je	LBB118_56
	jmp	LBB118_11
LBB118_55:
	movq	-24(%rbp), %rdi
	callq	__ZN36_$LT$core..ptr..NonNull$LT$T$GT$$GT$4cast17hd4917807fdeac476E
	movq	%rax, -520(%rbp)
	jmp	LBB118_59
LBB118_56:
	callq	__ZN107_$LT$alloc..collections..CollectionAllocErr$u20$as$u20$core..convert..From$LT$core..alloc..AllocErr$GT$$GT$4from17hd9ae46c45f817fceE
	movb	%al, -521(%rbp)
	movb	-521(%rbp), %al
	movzbl	%al, %ecx
	andl	$1, %ecx
	movl	%ecx, %edi
	callq	__ZN78_$LT$core..result..Result$LT$T$C$$u20$E$GT$$u20$as$u20$core..ops..try..Try$GT$10from_error17h93c8c255209dafcaE
	movb	%al, -225(%rbp)
	jmp	LBB118_34
LBB118_59:
	movq	-520(%rbp), %rdi
	callq	__ZN50_$LT$T$u20$as$u20$core..convert..Into$LT$U$GT$$GT$4into17h171cb85f0369ab1fE
	movq	%rax, -536(%rbp)
	movq	-248(%rbp), %rax
	movq	-536(%rbp), %rcx
	movq	%rcx, (%rax)
	movq	-216(%rbp), %rdx
	movq	%rdx, 8(%rax)
	movb	$2, -225(%rbp)
	jmp	LBB118_8
	.cfi_endproc

	.p2align	4, 0x90
__ZN49_$LT$alloc..raw_vec..RawVec$LT$T$C$$u20$A$GT$$GT$16reserve_internal17hb7ebbad068bdc8c6E:
	.cfi_startproc
	pushq	%rbp
	.cfi_def_cfa_offset 16
	.cfi_offset %rbp, -16
	movq	%rsp, %rbp
	.cfi_def_cfa_register %rbp
	subq	$544, %rsp
	movb	%r8b, %al
	movb	%cl, %r9b
	andb	$1, %al
	movb	%al, -226(%rbp)
	movq	%rsi, -240(%rbp)
	movq	%rdi, -248(%rbp)
	movb	%r9b, -249(%rbp)
	movq	%rdx, -264(%rbp)
	callq	__ZN4core3mem7size_of17hbd521d92caede32eE
	cmpq	$0, %rax
	jne	LBB119_2
	movq	$-1, -8(%rbp)
	jmp	LBB119_3
LBB119_2:
	movq	-248(%rbp), %rax
	movq	8(%rax), %rcx
	movq	%rcx, -8(%rbp)
LBB119_3:
	movq	-8(%rbp), %rdi
	movq	%rdi, -272(%rbp)
	movq	-272(%rbp), %rdi
	movq	-240(%rbp), %rsi
	callq	__ZN4core3num23_$LT$impl$u20$usize$GT$12wrapping_sub17h678b23997a3005c9E
	movq	%rax, -280(%rbp)
	movq	-280(%rbp), %rax
	movq	-264(%rbp), %rcx
	cmpq	%rcx, %rax
	jb	LBB119_7
	movb	$2, -225(%rbp)
	jmp	LBB119_8
LBB119_7:
	movzbl	-226(%rbp), %eax
	movl	%eax, %ecx
	movb	%cl, %dl
	testb	$1, %dl
	movq	%rcx, -288(%rbp)
	je	LBB119_9
	jmp	LBB119_61
LBB119_61:
	movq	-288(%rbp), %rax
	subq	$1, %rax
	movq	%rax, -296(%rbp)
	je	LBB119_10
	jmp	LBB119_11
LBB119_8:
	movb	-225(%rbp), %al
	addq	$544, %rsp
	popq	%rbp
	retq
LBB119_9:
	movq	-240(%rbp), %rdi
	movq	-264(%rbp), %rsi
	callq	__ZN4core3num23_$LT$impl$u20$usize$GT$11checked_add17h214fec1ff95646cfE
	movq	%rax, -304(%rbp)
	movq	%rdx, -312(%rbp)
	jmp	LBB119_13
LBB119_10:
	leaq	-152(%rbp), %rdi
	movq	-248(%rbp), %rsi
	movq	-240(%rbp), %rdx
	movq	-264(%rbp), %rcx
	callq	__ZN49_$LT$alloc..raw_vec..RawVec$LT$T$C$$u20$A$GT$$GT$18amortized_new_size17h49c37e2fbd4980c8E
	jmp	LBB119_21
LBB119_11:
	ud2
LBB119_12:
	movq	-216(%rbp), %rdi
	callq	__ZN4core5alloc6Layout5array17h913616d2b33c904cE
	movq	%rax, -320(%rbp)
	movq	%rdx, -328(%rbp)
	jmp	LBB119_27
LBB119_13:
	movb	$0, -169(%rbp)
	movb	-169(%rbp), %al
	andb	$1, %al
	leaq	-192(%rbp), %rdi
	movq	-304(%rbp), %rsi
	movq	-312(%rbp), %rdx
	movzbl	%al, %ecx
	callq	__ZN38_$LT$core..option..Option$LT$T$GT$$GT$5ok_or17h6f062194106b3641E
	leaq	-208(%rbp), %rdi
	leaq	-192(%rbp), %rsi
	callq	__ZN78_$LT$core..result..Result$LT$T$C$$u20$E$GT$$u20$as$u20$core..ops..try..Try$GT$11into_result17hdfe46e975f9cf8fbE
	movzbl	-208(%rbp), %eax
	movl	%eax, %ecx
	movb	%cl, %dl
	testb	$1, %dl
	movq	%rcx, -336(%rbp)
	je	LBB119_16
	jmp	LBB119_63
LBB119_63:
	movq	-336(%rbp), %rax
	subq	$1, %rax
	movq	%rax, -344(%rbp)
	je	LBB119_17
	jmp	LBB119_11
LBB119_16:
	movq	-200(%rbp), %rax
	movq	%rax, -216(%rbp)
	jmp	LBB119_12
LBB119_17:
	movb	-207(%rbp), %al
	andb	$1, %al
	movzbl	%al, %edi
	callq	__ZN50_$LT$T$u20$as$u20$core..convert..From$LT$T$GT$$GT$4from17h1440dea1b78bc8dbE
	movb	%al, -345(%rbp)
	movb	-345(%rbp), %al
	movzbl	%al, %ecx
	andl	$1, %ecx
	movl	%ecx, %edi
	callq	__ZN78_$LT$core..result..Result$LT$T$C$$u20$E$GT$$u20$as$u20$core..ops..try..Try$GT$10from_error17h93c8c255209dafcaE
	movb	%al, -225(%rbp)
	jmp	LBB119_20
LBB119_20:
	jmp	LBB119_8
LBB119_21:
	leaq	-168(%rbp), %rdi
	leaq	-152(%rbp), %rsi
	callq	__ZN78_$LT$core..result..Result$LT$T$C$$u20$E$GT$$u20$as$u20$core..ops..try..Try$GT$11into_result17hdfe46e975f9cf8fbE
	movzbl	-168(%rbp), %eax
	movl	%eax, %ecx
	movb	%cl, %dl
	testb	$1, %dl
	movq	%rcx, -360(%rbp)
	je	LBB119_23
	jmp	LBB119_62
LBB119_62:
	movq	-360(%rbp), %rax
	subq	$1, %rax
	movq	%rax, -368(%rbp)
	je	LBB119_24
	jmp	LBB119_11
LBB119_23:
	movq	-160(%rbp), %rax
	movq	%rax, -216(%rbp)
	jmp	LBB119_12
LBB119_24:
	movb	-167(%rbp), %al
	andb	$1, %al
	movzbl	%al, %edi
	callq	__ZN50_$LT$T$u20$as$u20$core..convert..From$LT$T$GT$$GT$4from17h1440dea1b78bc8dbE
	movb	%al, -369(%rbp)
	movb	-369(%rbp), %al
	movzbl	%al, %ecx
	andl	$1, %ecx
	movl	%ecx, %edi
	callq	__ZN78_$LT$core..result..Result$LT$T$C$$u20$E$GT$$u20$as$u20$core..ops..try..Try$GT$10from_error17h93c8c255209dafcaE
	movb	%al, -225(%rbp)
	jmp	LBB119_20
LBB119_27:
	leaq	-96(%rbp), %rdi
	movq	-320(%rbp), %rsi
	movq	-328(%rbp), %rdx
	callq	__ZN47_$LT$core..result..Result$LT$T$C$$u20$E$GT$$GT$7map_err17hfa532ee4ba2265e0E
	leaq	-120(%rbp), %rdi
	leaq	-96(%rbp), %rsi
	callq	__ZN78_$LT$core..result..Result$LT$T$C$$u20$E$GT$$u20$as$u20$core..ops..try..Try$GT$11into_result17h126a437d493fa9b1E
	movzbl	-120(%rbp), %eax
	movl	%eax, %ecx
	movb	%cl, %dl
	testb	$1, %dl
	movq	%rcx, -384(%rbp)
	je	LBB119_30
	jmp	LBB119_64
LBB119_64:
	movq	-384(%rbp), %rax
	subq	$1, %rax
	movq	%rax, -392(%rbp)
	je	LBB119_31
	jmp	LBB119_11
LBB119_30:
	movq	-112(%rbp), %rax
	movq	-104(%rbp), %rcx
	movq	%rax, -136(%rbp)
	movq	%rcx, -128(%rbp)
	leaq	-136(%rbp), %rdi
	callq	__ZN4core5alloc6Layout4size17h1766f3b7a37bc91dE
	movq	%rax, -400(%rbp)
	jmp	LBB119_35
LBB119_31:
	movb	-119(%rbp), %al
	andb	$1, %al
	movzbl	%al, %edi
	callq	__ZN50_$LT$T$u20$as$u20$core..convert..From$LT$T$GT$$GT$4from17h1440dea1b78bc8dbE
	movb	%al, -401(%rbp)
	movb	-401(%rbp), %al
	movzbl	%al, %ecx
	andl	$1, %ecx
	movl	%ecx, %edi
	callq	__ZN78_$LT$core..result..Result$LT$T$C$$u20$E$GT$$u20$as$u20$core..ops..try..Try$GT$10from_error17h93c8c255209dafcaE
	movb	%al, -225(%rbp)
	jmp	LBB119_34
LBB119_34:
	jmp	LBB119_20
LBB119_35:
	movq	-400(%rbp), %rdi
	callq	__ZN5alloc7raw_vec11alloc_guard17ha0ed221f2a2b3615E
	movb	%al, -402(%rbp)
	movb	-402(%rbp), %al
	movzbl	%al, %edi
	callq	__ZN78_$LT$core..result..Result$LT$T$C$$u20$E$GT$$u20$as$u20$core..ops..try..Try$GT$11into_result17h7a9f2583ca00197dE
	movb	%al, -65(%rbp)
	movb	-65(%rbp), %al
	subb	$2, %al
	setne	%cl
	movzbl	%cl, %edx
	movl	%edx, %esi
	movb	%al, -403(%rbp)
	movq	%rsi, -416(%rbp)
	je	LBB119_38
	jmp	LBB119_65
LBB119_65:
	movq	-416(%rbp), %rax
	subq	$1, %rax
	movq	%rax, -424(%rbp)
	je	LBB119_39
	jmp	LBB119_11
LBB119_38:
	movq	-248(%rbp), %rdi
	callq	__ZN49_$LT$alloc..raw_vec..RawVec$LT$T$C$$u20$A$GT$$GT$14current_layout17h7a9577cdbf1ba780E
	movq	%rdx, -48(%rbp)
	movq	%rax, -56(%rbp)
	jmp	LBB119_42
LBB119_39:
	movb	-65(%rbp), %al
	andb	$1, %al
	movzbl	%al, %edi
	callq	__ZN50_$LT$T$u20$as$u20$core..convert..From$LT$T$GT$$GT$4from17h1440dea1b78bc8dbE
	movb	%al, -425(%rbp)
	movb	-425(%rbp), %al
	movzbl	%al, %ecx
	andl	$1, %ecx
	movl	%ecx, %edi
	callq	__ZN78_$LT$core..result..Result$LT$T$C$$u20$E$GT$$u20$as$u20$core..ops..try..Try$GT$10from_error17h93c8c255209dafcaE
	movb	%al, -225(%rbp)
	jmp	LBB119_34
LBB119_42:
	movq	-48(%rbp), %rax
	testq	%rax, %rax
	setne	%cl
	movzbl	%cl, %edx
	movl	%edx, %eax
	movq	%rax, -440(%rbp)
	je	LBB119_43
	jmp	LBB119_66
LBB119_66:
	movq	-440(%rbp), %rax
	subq	$1, %rax
	movq	%rax, -448(%rbp)
	je	LBB119_44
	jmp	LBB119_11
LBB119_43:
	movq	-248(%rbp), %rax
	movq	-136(%rbp), %rsi
	movq	-128(%rbp), %rdx
	movq	%rax, %rdi
	callq	__ZN59_$LT$alloc..alloc..Global$u20$as$u20$core..alloc..Alloc$GT$5alloc17h6bc607590b381e70E
	movq	%rax, -64(%rbp)
	jmp	LBB119_50
LBB119_44:
	movq	-56(%rbp), %rdx
	movq	-48(%rbp), %rcx
	movq	-248(%rbp), %rax
	movq	-248(%rbp), %rsi
	movq	(%rsi), %rdi
	movq	%rdx, -456(%rbp)
	movq	%rcx, -464(%rbp)
	movq	%rax, -472(%rbp)
	callq	__ZN101_$LT$core..ptr..NonNull$LT$T$GT$$u20$as$u20$core..convert..From$LT$core..ptr..Unique$LT$T$GT$$GT$$GT$4from17h8b93a8fae7ccb5b5E
	movq	%rax, -480(%rbp)
	jmp	LBB119_46
LBB119_45:
	xorl	%eax, %eax
	movl	%eax, %ecx
	movl	$1, %eax
	movl	%eax, %edx
	leaq	-64(%rbp), %rsi
	movq	%rsi, -40(%rbp)
	movb	-249(%rbp), %dil
	andb	$1, %dil
	movb	%dil, -32(%rbp)
	movq	-40(%rbp), %rsi
	cmpq	$0, (%rsi)
	cmoveq	%rdx, %rcx
	cmpq	$1, %rcx
	je	LBB119_53
	jmp	LBB119_51
LBB119_46:
	movq	-480(%rbp), %rdi
	callq	__ZN36_$LT$core..ptr..NonNull$LT$T$GT$$GT$4cast17h8c3ade831783f3ecE
	movq	%rax, -488(%rbp)
	leaq	-136(%rbp), %rdi
	callq	__ZN4core5alloc6Layout4size17h1766f3b7a37bc91dE
	movq	%rax, -496(%rbp)
	movq	-472(%rbp), %rdi
	movq	-488(%rbp), %rsi
	movq	-456(%rbp), %rdx
	movq	-464(%rbp), %rcx
	movq	-496(%rbp), %r8
	callq	__ZN59_$LT$alloc..alloc..Global$u20$as$u20$core..alloc..Alloc$GT$7realloc17hf2dc03ff186bb756E
	movq	%rax, -64(%rbp)
	jmp	LBB119_45
LBB119_50:
	jmp	LBB119_45
LBB119_51:
	movq	-64(%rbp), %rdi
	callq	__ZN78_$LT$core..result..Result$LT$T$C$$u20$E$GT$$u20$as$u20$core..ops..try..Try$GT$11into_result17hd286e3c9c3590504E
	movq	%rax, -24(%rbp)
	jmp	LBB119_54
LBB119_52:
	movq	-136(%rbp), %rdi
	movq	-128(%rbp), %rsi
	callq	__ZN5alloc5alloc18handle_alloc_error17h6c81acad613628fbE
LBB119_53:
	movb	-32(%rbp), %al
	andb	$1, %al
	movzbl	%al, %ecx
	movl	%ecx, %edx
	cmpq	$1, %rdx
	je	LBB119_52
	jmp	LBB119_51
LBB119_54:
	movq	-24(%rbp), %rax
	testq	%rax, %rax
	sete	%cl
	movzbl	%cl, %edx
	movl	%edx, %eax
	movq	%rax, -504(%rbp)
	jne	LBB119_55
	jmp	LBB119_67
LBB119_67:
	movq	-504(%rbp), %rax
	subq	$1, %rax
	movq	%rax, -512(%rbp)
	je	LBB119_56
	jmp	LBB119_11
LBB119_55:
	movq	-24(%rbp), %rdi
	callq	__ZN36_$LT$core..ptr..NonNull$LT$T$GT$$GT$4cast17h32fe31ab7f97a563E
	movq	%rax, -520(%rbp)
	jmp	LBB119_59
LBB119_56:
	callq	__ZN107_$LT$alloc..collections..CollectionAllocErr$u20$as$u20$core..convert..From$LT$core..alloc..AllocErr$GT$$GT$4from17hd9ae46c45f817fceE
	movb	%al, -521(%rbp)
	movb	-521(%rbp), %al
	movzbl	%al, %ecx
	andl	$1, %ecx
	movl	%ecx, %edi
	callq	__ZN78_$LT$core..result..Result$LT$T$C$$u20$E$GT$$u20$as$u20$core..ops..try..Try$GT$10from_error17h93c8c255209dafcaE
	movb	%al, -225(%rbp)
	jmp	LBB119_34
LBB119_59:
	movq	-520(%rbp), %rdi
	callq	__ZN50_$LT$T$u20$as$u20$core..convert..Into$LT$U$GT$$GT$4into17h1f51cc9cd0d47d8dE
	movq	%rax, -536(%rbp)
	movq	-248(%rbp), %rax
	movq	-536(%rbp), %rcx
	movq	%rcx, (%rax)
	movq	-216(%rbp), %rdx
	movq	%rdx, 8(%rax)
	movb	$2, -225(%rbp)
	jmp	LBB119_8
	.cfi_endproc

	.p2align	4, 0x90
__ZN49_$LT$alloc..raw_vec..RawVec$LT$T$C$$u20$A$GT$$GT$16reserve_internal28_$u7b$$u7b$closure$u7d$$u7d$17h01d4395f4de66cffE:
	.cfi_startproc
	pushq	%rbp
	.cfi_def_cfa_offset 16
	.cfi_offset %rbp, -16
	movq	%rsp, %rbp
	.cfi_def_cfa_register %rbp
	subq	$1, %rsp
	movb	$0, -1(%rbp)
	movb	-1(%rbp), %al
	andb	$1, %al
	movzbl	%al, %eax
	addq	$1, %rsp
	popq	%rbp
	retq
	.cfi_endproc

	.p2align	4, 0x90
__ZN49_$LT$alloc..raw_vec..RawVec$LT$T$C$$u20$A$GT$$GT$16reserve_internal28_$u7b$$u7b$closure$u7d$$u7d$17hfbccd4c10f110820E:
	.cfi_startproc
	pushq	%rbp
	.cfi_def_cfa_offset 16
	.cfi_offset %rbp, -16
	movq	%rsp, %rbp
	.cfi_def_cfa_register %rbp
	subq	$1, %rsp
	movb	$0, -1(%rbp)
	movb	-1(%rbp), %al
	andb	$1, %al
	movzbl	%al, %eax
	addq	$1, %rsp
	popq	%rbp
	retq
	.cfi_endproc

	.p2align	4, 0x90
__ZN49_$LT$alloc..raw_vec..RawVec$LT$T$C$$u20$A$GT$$GT$18amortized_new_size17h195e09ad049dfebfE:
	.cfi_startproc
	pushq	%rbp
	.cfi_def_cfa_offset 16
	.cfi_offset %rbp, -16
	movq	%rsp, %rbp
	.cfi_def_cfa_register %rbp
	subq	$112, %rsp
	movq	%rdi, %rax
	movq	%rdi, -48(%rbp)
	movq	%rdx, %rdi
	movq	%rsi, -56(%rbp)
	movq	%rcx, %rsi
	movq	%rax, -64(%rbp)
	callq	__ZN4core3num23_$LT$impl$u20$usize$GT$11checked_add17h214fec1ff95646cfE
	movq	%rax, -72(%rbp)
	movq	%rdx, -80(%rbp)
	movb	$0, -1(%rbp)
	movb	-1(%rbp), %al
	andb	$1, %al
	leaq	-24(%rbp), %rdi
	movq	-72(%rbp), %rsi
	movq	-80(%rbp), %rdx
	movzbl	%al, %ecx
	callq	__ZN38_$LT$core..option..Option$LT$T$GT$$GT$5ok_or17h6f062194106b3641E
	leaq	-40(%rbp), %rdi
	leaq	-24(%rbp), %rsi
	callq	__ZN78_$LT$core..result..Result$LT$T$C$$u20$E$GT$$u20$as$u20$core..ops..try..Try$GT$11into_result17hdfe46e975f9cf8fbE
	movzbl	-40(%rbp), %eax
	movl	%eax, %ecx
	movb	%cl, %dl
	testb	$1, %dl
	movq	%rcx, -88(%rbp)
	je	LBB122_5
	jmp	LBB122_11
LBB122_11:
	movq	-88(%rbp), %rax
	subq	$1, %rax
	movq	%rax, -96(%rbp)
	je	LBB122_6
	jmp	LBB122_4
LBB122_4:
	ud2
LBB122_5:
	movq	-32(%rbp), %rsi
	movq	-56(%rbp), %rax
	movq	8(%rax), %rcx
	shlq	$1, %rcx
	movq	%rcx, %rdi
	callq	__ZN4core3cmp3max17hfea3c5388ed7f210E
	movq	%rax, -104(%rbp)
	jmp	LBB122_10
LBB122_6:
	movb	-39(%rbp), %al
	andb	$1, %al
	movzbl	%al, %edi
	callq	__ZN50_$LT$T$u20$as$u20$core..convert..From$LT$T$GT$$GT$4from17h1440dea1b78bc8dbE
	movb	%al, -105(%rbp)
	movb	-105(%rbp), %al
	movzbl	%al, %ecx
	andl	$1, %ecx
	movq	-48(%rbp), %rdi
	movl	%ecx, %esi
	callq	__ZN78_$LT$core..result..Result$LT$T$C$$u20$E$GT$$u20$as$u20$core..ops..try..Try$GT$10from_error17h2fc8271831a09643E
	jmp	LBB122_9
LBB122_9:
	movq	-64(%rbp), %rax
	addq	$112, %rsp
	popq	%rbp
	retq
LBB122_10:
	movq	-48(%rbp), %rax
	movq	-104(%rbp), %rcx
	movq	%rcx, 8(%rax)
	movb	$0, (%rax)
	jmp	LBB122_9
	.cfi_endproc

	.p2align	4, 0x90
__ZN49_$LT$alloc..raw_vec..RawVec$LT$T$C$$u20$A$GT$$GT$18amortized_new_size17h49c37e2fbd4980c8E:
	.cfi_startproc
	pushq	%rbp
	.cfi_def_cfa_offset 16
	.cfi_offset %rbp, -16
	movq	%rsp, %rbp
	.cfi_def_cfa_register %rbp
	subq	$112, %rsp
	movq	%rdi, %rax
	movq	%rdi, -48(%rbp)
	movq	%rdx, %rdi
	movq	%rsi, -56(%rbp)
	movq	%rcx, %rsi
	movq	%rax, -64(%rbp)
	callq	__ZN4core3num23_$LT$impl$u20$usize$GT$11checked_add17h214fec1ff95646cfE
	movq	%rax, -72(%rbp)
	movq	%rdx, -80(%rbp)
	movb	$0, -1(%rbp)
	movb	-1(%rbp), %al
	andb	$1, %al
	leaq	-24(%rbp), %rdi
	movq	-72(%rbp), %rsi
	movq	-80(%rbp), %rdx
	movzbl	%al, %ecx
	callq	__ZN38_$LT$core..option..Option$LT$T$GT$$GT$5ok_or17h6f062194106b3641E
	leaq	-40(%rbp), %rdi
	leaq	-24(%rbp), %rsi
	callq	__ZN78_$LT$core..result..Result$LT$T$C$$u20$E$GT$$u20$as$u20$core..ops..try..Try$GT$11into_result17hdfe46e975f9cf8fbE
	movzbl	-40(%rbp), %eax
	movl	%eax, %ecx
	movb	%cl, %dl
	testb	$1, %dl
	movq	%rcx, -88(%rbp)
	je	LBB123_5
	jmp	LBB123_11
LBB123_11:
	movq	-88(%rbp), %rax
	subq	$1, %rax
	movq	%rax, -96(%rbp)
	je	LBB123_6
	jmp	LBB123_4
LBB123_4:
	ud2
LBB123_5:
	movq	-32(%rbp), %rsi
	movq	-56(%rbp), %rax
	movq	8(%rax), %rcx
	shlq	$1, %rcx
	movq	%rcx, %rdi
	callq	__ZN4core3cmp3max17hfea3c5388ed7f210E
	movq	%rax, -104(%rbp)
	jmp	LBB123_10
LBB123_6:
	movb	-39(%rbp), %al
	andb	$1, %al
	movzbl	%al, %edi
	callq	__ZN50_$LT$T$u20$as$u20$core..convert..From$LT$T$GT$$GT$4from17h1440dea1b78bc8dbE
	movb	%al, -105(%rbp)
	movb	-105(%rbp), %al
	movzbl	%al, %ecx
	andl	$1, %ecx
	movq	-48(%rbp), %rdi
	movl	%ecx, %esi
	callq	__ZN78_$LT$core..result..Result$LT$T$C$$u20$E$GT$$u20$as$u20$core..ops..try..Try$GT$10from_error17h2fc8271831a09643E
	jmp	LBB123_9
LBB123_9:
	movq	-64(%rbp), %rax
	addq	$112, %rsp
	popq	%rbp
	retq
LBB123_10:
	movq	-48(%rbp), %rax
	movq	-104(%rbp), %rcx
	movq	%rcx, 8(%rax)
	movb	$0, (%rax)
	jmp	LBB123_9
	.cfi_endproc

	.p2align	4, 0x90
__ZN49_$LT$alloc..raw_vec..RawVec$LT$T$C$$u20$A$GT$$GT$3ptr17h2f33377e216ad408E:
	.cfi_startproc
	pushq	%rbp
	.cfi_def_cfa_offset 16
	.cfi_offset %rbp, -16
	movq	%rsp, %rbp
	.cfi_def_cfa_register %rbp
	subq	$16, %rsp
	movq	(%rdi), %rdi
	callq	__ZN35_$LT$core..ptr..Unique$LT$T$GT$$GT$6as_ptr17h02ef7886822b6f07E
	movq	%rax, -8(%rbp)
	movq	-8(%rbp), %rax
	addq	$16, %rsp
	popq	%rbp
	retq
	.cfi_endproc

	.p2align	4, 0x90
__ZN49_$LT$alloc..raw_vec..RawVec$LT$T$C$$u20$A$GT$$GT$3ptr17h63a052c7e83b2fdcE:
	.cfi_startproc
	pushq	%rbp
	.cfi_def_cfa_offset 16
	.cfi_offset %rbp, -16
	movq	%rsp, %rbp
	.cfi_def_cfa_register %rbp
	subq	$16, %rsp
	movq	(%rdi), %rdi
	callq	__ZN35_$LT$core..ptr..Unique$LT$T$GT$$GT$6as_ptr17hb98fbab04acc2f9eE
	movq	%rax, -8(%rbp)
	movq	-8(%rbp), %rax
	addq	$16, %rsp
	popq	%rbp
	retq
	.cfi_endproc

	.p2align	4, 0x90
__ZN49_$LT$alloc..raw_vec..RawVec$LT$T$C$$u20$A$GT$$GT$6new_in17h963c94a5a39eb081E:
Lfunc_begin24:
	.cfi_startproc
	.cfi_personality 155, _rust_eh_personality
	.cfi_lsda 16, Lexception24
	pushq	%rbp
	.cfi_def_cfa_offset 16
	.cfi_offset %rbp, -16
	movq	%rsp, %rbp
	.cfi_def_cfa_register %rbp
	subq	$80, %rsp
Ltmp223:
	callq	__ZN35_$LT$core..ptr..Unique$LT$T$GT$$GT$5empty17h2bf95fc1915729e0E
Ltmp224:
	movq	%rax, -56(%rbp)
	jmp	LBB126_2
LBB126_1:
	movq	-16(%rbp), %rdi
	callq	__Unwind_Resume
	ud2
LBB126_2:
	movq	$0, -32(%rbp)
	movq	$-1, -24(%rbp)
Ltmp225:
	callq	__ZN4core3mem7size_of17hc85f0091669efbbaE
Ltmp226:
	movq	%rax, -64(%rbp)
	jmp	LBB126_4
LBB126_3:
	jmp	LBB126_1
LBB126_4:
	movq	-64(%rbp), %rax
	cmpq	$0, %rax
	sete	%cl
	andb	$1, %cl
	movzbl	%cl, %edx
	movl	%edx, %esi
	cmpq	$2, %rsi
	setb	%cl
	testb	$1, %cl
	movq	%rsi, -72(%rbp)
	jne	LBB126_5
	jmp	LBB126_7
LBB126_5:
	movq	-72(%rbp), %rax
	movq	-32(%rbp,%rax,8), %rcx
	movq	-56(%rbp), %rdx
	movq	%rdx, -48(%rbp)
	movq	%rcx, -40(%rbp)
	movq	-48(%rbp), %rax
	movq	-40(%rbp), %rdx
	addq	$80, %rsp
	popq	%rbp
	retq
LBB126_6:
Ltmp229:
	movl	%edx, %ecx
	movq	%rax, -16(%rbp)
	movl	%ecx, -8(%rbp)
	jmp	LBB126_3
LBB126_7:
Ltmp227:
	leaq	l___unnamed_7(%rip), %rdi
	movl	$2, %edx
	movq	-72(%rbp), %rsi
	callq	__ZN4core9panicking18panic_bounds_check17hc5a84119c0aae5ccE
Ltmp228:
	jmp	LBB126_8
LBB126_8:
	ud2
Lfunc_end24:
	.cfi_endproc
	.section	__TEXT,__gcc_except_tab
	.p2align	2
GCC_except_table126:
Lexception24:
	.byte	255
	.byte	255
	.byte	1
	.uleb128 Lcst_end24-Lcst_begin24
Lcst_begin24:
	.uleb128 Ltmp223-Lfunc_begin24
	.uleb128 Ltmp224-Ltmp223
	.uleb128 Ltmp229-Lfunc_begin24
	.byte	0
	.uleb128 Ltmp224-Lfunc_begin24
	.uleb128 Ltmp225-Ltmp224
	.byte	0
	.byte	0
	.uleb128 Ltmp225-Lfunc_begin24
	.uleb128 Ltmp228-Ltmp225
	.uleb128 Ltmp229-Lfunc_begin24
	.byte	0
Lcst_end24:
	.p2align	2

	.section	__TEXT,__text,regular,pure_instructions
	.p2align	4, 0x90
__ZN49_$LT$alloc..raw_vec..RawVec$LT$T$C$$u20$A$GT$$GT$6new_in17h97ae5c00538acab0E:
Lfunc_begin25:
	.cfi_startproc
	.cfi_personality 155, _rust_eh_personality
	.cfi_lsda 16, Lexception25
	pushq	%rbp
	.cfi_def_cfa_offset 16
	.cfi_offset %rbp, -16
	movq	%rsp, %rbp
	.cfi_def_cfa_register %rbp
	subq	$80, %rsp
Ltmp230:
	callq	__ZN35_$LT$core..ptr..Unique$LT$T$GT$$GT$5empty17h80fab7e3a6dc86b8E
Ltmp231:
	movq	%rax, -56(%rbp)
	jmp	LBB127_2
LBB127_1:
	movq	-16(%rbp), %rdi
	callq	__Unwind_Resume
	ud2
LBB127_2:
	movq	$0, -32(%rbp)
	movq	$-1, -24(%rbp)
Ltmp232:
	callq	__ZN4core3mem7size_of17hbd521d92caede32eE
Ltmp233:
	movq	%rax, -64(%rbp)
	jmp	LBB127_4
LBB127_3:
	jmp	LBB127_1
LBB127_4:
	movq	-64(%rbp), %rax
	cmpq	$0, %rax
	sete	%cl
	andb	$1, %cl
	movzbl	%cl, %edx
	movl	%edx, %esi
	cmpq	$2, %rsi
	setb	%cl
	testb	$1, %cl
	movq	%rsi, -72(%rbp)
	jne	LBB127_5
	jmp	LBB127_7
LBB127_5:
	movq	-72(%rbp), %rax
	movq	-32(%rbp,%rax,8), %rcx
	movq	-56(%rbp), %rdx
	movq	%rdx, -48(%rbp)
	movq	%rcx, -40(%rbp)
	movq	-48(%rbp), %rax
	movq	-40(%rbp), %rdx
	addq	$80, %rsp
	popq	%rbp
	retq
LBB127_6:
Ltmp236:
	movl	%edx, %ecx
	movq	%rax, -16(%rbp)
	movl	%ecx, -8(%rbp)
	jmp	LBB127_3
LBB127_7:
Ltmp234:
	leaq	l___unnamed_7(%rip), %rdi
	movl	$2, %edx
	movq	-72(%rbp), %rsi
	callq	__ZN4core9panicking18panic_bounds_check17hc5a84119c0aae5ccE
Ltmp235:
	jmp	LBB127_8
LBB127_8:
	ud2
Lfunc_end25:
	.cfi_endproc
	.section	__TEXT,__gcc_except_tab
	.p2align	2
GCC_except_table127:
Lexception25:
	.byte	255
	.byte	255
	.byte	1
	.uleb128 Lcst_end25-Lcst_begin25
Lcst_begin25:
	.uleb128 Ltmp230-Lfunc_begin25
	.uleb128 Ltmp231-Ltmp230
	.uleb128 Ltmp236-Lfunc_begin25
	.byte	0
	.uleb128 Ltmp231-Lfunc_begin25
	.uleb128 Ltmp232-Ltmp231
	.byte	0
	.byte	0
	.uleb128 Ltmp232-Lfunc_begin25
	.uleb128 Ltmp235-Ltmp232
	.uleb128 Ltmp236-Lfunc_begin25
	.byte	0
Lcst_end25:
	.p2align	2

	.section	__TEXT,__text,regular,pure_instructions
	.p2align	4, 0x90
__ZN49_$LT$alloc..raw_vec..RawVec$LT$T$C$$u20$A$GT$$GT$7reserve17h77a6abcea20b2b86E:
	.cfi_startproc
	pushq	%rbp
	.cfi_def_cfa_offset 16
	.cfi_offset %rbp, -16
	movq	%rsp, %rbp
	.cfi_def_cfa_register %rbp
	subq	$48, %rsp
	movb	$1, -2(%rbp)
	movb	$1, -1(%rbp)
	movb	-2(%rbp), %al
	movb	-1(%rbp), %cl
	andb	$1, %al
	andb	$1, %cl
	movzbl	%al, %r8d
	movb	%cl, -4(%rbp)
	movl	%r8d, %ecx
	movb	-4(%rbp), %al
	movzbl	%al, %r8d
	callq	__ZN49_$LT$alloc..raw_vec..RawVec$LT$T$C$$u20$A$GT$$GT$16reserve_internal17hb7ebbad068bdc8c6E
	movb	%al, -3(%rbp)
	movb	-3(%rbp), %al
	subb	$2, %al
	setne	%cl
	movzbl	%cl, %edx
	movl	%edx, %esi
	movb	%al, -5(%rbp)
	movq	%rsi, -16(%rbp)
	je	LBB128_2
	jmp	LBB128_7
LBB128_7:
	movq	-16(%rbp), %rax
	subq	$1, %rax
	movq	%rax, -24(%rbp)
	je	LBB128_5
	jmp	LBB128_6
LBB128_2:
	addq	$48, %rsp
	popq	%rbp
	retq
LBB128_3:
	callq	__ZN5alloc7raw_vec17capacity_overflow17hbe1df8795eb99c83E
LBB128_4:
	leaq	l___unnamed_8(%rip), %rdi
	callq	__ZN4core9panicking5panic17h9e14359664dfef5fE
LBB128_5:
	movzbl	-3(%rbp), %eax
	movl	%eax, %ecx
	movb	%cl, %dl
	testb	$1, %dl
	movq	%rcx, -32(%rbp)
	je	LBB128_3
	jmp	LBB128_8
LBB128_8:
	movq	-32(%rbp), %rax
	subq	$1, %rax
	movq	%rax, -40(%rbp)
	je	LBB128_4
	jmp	LBB128_6
LBB128_6:
	ud2
	.cfi_endproc

	.p2align	4, 0x90
__ZN49_$LT$alloc..raw_vec..RawVec$LT$T$C$$u20$A$GT$$GT$7reserve17hff926930e8d0f16dE:
	.cfi_startproc
	pushq	%rbp
	.cfi_def_cfa_offset 16
	.cfi_offset %rbp, -16
	movq	%rsp, %rbp
	.cfi_def_cfa_register %rbp
	subq	$48, %rsp
	movb	$1, -2(%rbp)
	movb	$1, -1(%rbp)
	movb	-2(%rbp), %al
	movb	-1(%rbp), %cl
	andb	$1, %al
	andb	$1, %cl
	movzbl	%al, %r8d
	movb	%cl, -4(%rbp)
	movl	%r8d, %ecx
	movb	-4(%rbp), %al
	movzbl	%al, %r8d
	callq	__ZN49_$LT$alloc..raw_vec..RawVec$LT$T$C$$u20$A$GT$$GT$16reserve_internal17h39614bad0d6ad2bbE
	movb	%al, -3(%rbp)
	movb	-3(%rbp), %al
	subb	$2, %al
	setne	%cl
	movzbl	%cl, %edx
	movl	%edx, %esi
	movb	%al, -5(%rbp)
	movq	%rsi, -16(%rbp)
	je	LBB129_2
	jmp	LBB129_7
LBB129_7:
	movq	-16(%rbp), %rax
	subq	$1, %rax
	movq	%rax, -24(%rbp)
	je	LBB129_5
	jmp	LBB129_6
LBB129_2:
	addq	$48, %rsp
	popq	%rbp
	retq
LBB129_3:
	callq	__ZN5alloc7raw_vec17capacity_overflow17hbe1df8795eb99c83E
LBB129_4:
	leaq	l___unnamed_8(%rip), %rdi
	callq	__ZN4core9panicking5panic17h9e14359664dfef5fE
LBB129_5:
	movzbl	-3(%rbp), %eax
	movl	%eax, %ecx
	movb	%cl, %dl
	testb	$1, %dl
	movq	%rcx, -32(%rbp)
	je	LBB129_3
	jmp	LBB129_8
LBB129_8:
	movq	-32(%rbp), %rax
	subq	$1, %rax
	movq	%rax, -40(%rbp)
	je	LBB129_4
	jmp	LBB129_6
LBB129_6:
	ud2
	.cfi_endproc

	.p2align	4, 0x90
__ZN49_$LT$core..slice..Iter$LT$$u27$a$C$$u20$T$GT$$GT$8as_slice17h4013a8e07ba2d8a0E:
	.cfi_startproc
	pushq	%rbp
	.cfi_def_cfa_offset 16
	.cfi_offset %rbp, -16
	movq	%rsp, %rbp
	.cfi_def_cfa_register %rbp
	subq	$48, %rsp
	movq	(%rdi), %rax
	movq	(%rdi), %rsi
	movq	8(%rdi), %rdi
	movq	%rax, -16(%rbp)
	callq	__ZN4core3num23_$LT$impl$u20$usize$GT$12wrapping_sub17h678b23997a3005c9E
	movq	%rax, -24(%rbp)
	callq	__ZN4core3mem7size_of17hc85f0091669efbbaE
	cmpq	$0, %rax
	movq	%rax, -32(%rbp)
	jne	LBB130_2
	movq	-24(%rbp), %rax
	movq	%rax, -8(%rbp)
	jmp	LBB130_5
LBB130_2:
	movq	-32(%rbp), %rax
	cmpq	$0, %rax
	sete	%cl
	testb	$1, %cl
	jne	LBB130_4
	movq	-24(%rbp), %rax
	xorl	%ecx, %ecx
	movl	%ecx, %edx
	movq	-32(%rbp), %rsi
	divq	%rsi
	movq	%rax, -8(%rbp)
	jmp	LBB130_5
LBB130_4:
	leaq	l___unnamed_1(%rip), %rdi
	callq	__ZN4core9panicking5panic17h9e14359664dfef5fE
LBB130_5:
	movq	-8(%rbp), %rsi
	movq	-16(%rbp), %rdi
	callq	__ZN4core5slice14from_raw_parts17h20bb1f24c0f843c6E
	movq	%rax, -40(%rbp)
	movq	%rdx, -48(%rbp)
	movq	-40(%rbp), %rax
	movq	-48(%rbp), %rdx
	addq	$48, %rsp
	popq	%rbp
	retq
	.cfi_endproc

	.p2align	4, 0x90
__ZN4core3cmp10PartialOrd2ge17h6e1b761c100b7b50E:
	.cfi_startproc
	pushq	%rbp
	.cfi_def_cfa_offset 16
	.cfi_offset %rbp, -16
	movq	%rsp, %rbp
	.cfi_def_cfa_register %rbp
	subq	$16, %rsp
	callq	__ZN69_$LT$core..num..bignum..Big32x40$u20$as$u20$core..cmp..PartialOrd$GT$11partial_cmp17hc33dfd8a11a470acE
	movb	%al, -1(%rbp)
	movl	$1, %eax
	movl	%eax, %ecx
	xorl	%eax, %eax
	movl	%eax, %edx
	cmpb	$2, -1(%rbp)
	cmoveq	%rdx, %rcx
	cmpq	$1, %rcx
	je	LBB131_4
	jmp	LBB131_3
LBB131_2:
	movb	$1, -2(%rbp)
	jmp	LBB131_5
LBB131_3:
	movb	$0, -2(%rbp)
	jmp	LBB131_5
LBB131_4:
	movsbq	-1(%rbp), %rax
	subq	$2, %rax
	movq	%rax, -16(%rbp)
	jb	LBB131_2
	jmp	LBB131_3
LBB131_5:
	movb	-2(%rbp), %al
	andb	$1, %al
	movzbl	%al, %eax
	addq	$16, %rsp
	popq	%rbp
	retq
	.cfi_endproc

	.p2align	4, 0x90
__ZN4core3cmp10PartialOrd2gt17h7c5bd8eb806f7eeeE:
	.cfi_startproc
	pushq	%rbp
	.cfi_def_cfa_offset 16
	.cfi_offset %rbp, -16
	movq	%rsp, %rbp
	.cfi_def_cfa_register %rbp
	subq	$16, %rsp
	callq	__ZN69_$LT$core..num..bignum..Big32x40$u20$as$u20$core..cmp..PartialOrd$GT$11partial_cmp17hc33dfd8a11a470acE
	movb	%al, -1(%rbp)
	movl	$1, %eax
	movl	%eax, %ecx
	xorl	%eax, %eax
	movl	%eax, %edx
	cmpb	$2, -1(%rbp)
	cmoveq	%rdx, %rcx
	cmpq	$1, %rcx
	je	LBB132_4
LBB132_2:
	movb	$0, -2(%rbp)
	jmp	LBB132_5
LBB132_3:
	movb	$1, -2(%rbp)
	jmp	LBB132_5
LBB132_4:
	movsbq	-1(%rbp), %rax
	cmpq	$1, %rax
	je	LBB132_3
	jmp	LBB132_2
LBB132_5:
	movb	-2(%rbp), %al
	andb	$1, %al
	movzbl	%al, %eax
	addq	$16, %rsp
	popq	%rbp
	retq
	.cfi_endproc

	.p2align	4, 0x90
__ZN4core3cmp10PartialOrd2le17hcb5d77361f385be7E:
	.cfi_startproc
	pushq	%rbp
	.cfi_def_cfa_offset 16
	.cfi_offset %rbp, -16
	movq	%rsp, %rbp
	.cfi_def_cfa_register %rbp
	subq	$16, %rsp
	callq	__ZN69_$LT$core..num..bignum..Big32x40$u20$as$u20$core..cmp..PartialOrd$GT$11partial_cmp17hc33dfd8a11a470acE
	movb	%al, -1(%rbp)
	movl	$1, %eax
	movl	%eax, %ecx
	xorl	%eax, %eax
	movl	%eax, %edx
	cmpb	$2, -1(%rbp)
	cmoveq	%rdx, %rcx
	cmpq	$1, %rcx
	je	LBB133_4
	jmp	LBB133_3
LBB133_2:
	movb	$1, -2(%rbp)
	jmp	LBB133_5
LBB133_3:
	movb	$0, -2(%rbp)
	jmp	LBB133_5
LBB133_4:
	movsbq	-1(%rbp), %rax
	incq	%rax
	subq	$2, %rax
	movq	%rax, -16(%rbp)
	jb	LBB133_2
	jmp	LBB133_3
LBB133_5:
	movb	-2(%rbp), %al
	andb	$1, %al
	movzbl	%al, %eax
	addq	$16, %rsp
	popq	%rbp
	retq
	.cfi_endproc

	.p2align	4, 0x90
__ZN4core3cmp10PartialOrd2lt17h4c75d35ff2316aeaE:
	.cfi_startproc
	pushq	%rbp
	.cfi_def_cfa_offset 16
	.cfi_offset %rbp, -16
	movq	%rsp, %rbp
	.cfi_def_cfa_register %rbp
	subq	$16, %rsp
	callq	__ZN69_$LT$core..num..bignum..Big32x40$u20$as$u20$core..cmp..PartialOrd$GT$11partial_cmp17hc33dfd8a11a470acE
	movb	%al, -1(%rbp)
	movl	$1, %eax
	movl	%eax, %ecx
	xorl	%eax, %eax
	movl	%eax, %edx
	cmpb	$2, -1(%rbp)
	cmoveq	%rdx, %rcx
	cmpq	$1, %rcx
	je	LBB134_4
LBB134_2:
	movb	$0, -2(%rbp)
	jmp	LBB134_5
LBB134_3:
	movb	$1, -2(%rbp)
	jmp	LBB134_5
LBB134_4:
	movsbq	-1(%rbp), %rax
	cmpq	$-1, %rax
	je	LBB134_3
	jmp	LBB134_2
LBB134_5:
	movb	-2(%rbp), %al
	andb	$1, %al
	movzbl	%al, %eax
	addq	$16, %rsp
	popq	%rbp
	retq
	.cfi_endproc

	.p2align	4, 0x90
__ZN4core3cmp3Ord3max17h6980fd450d6d2437E:
Lfunc_begin26:
	.cfi_startproc
	.cfi_personality 155, _rust_eh_personality
	.cfi_lsda 16, Lexception26
	pushq	%rbp
	.cfi_def_cfa_offset 16
	.cfi_offset %rbp, -16
	movq	%rsp, %rbp
	.cfi_def_cfa_register %rbp
	subq	$64, %rsp
	movq	%rdi, -48(%rbp)
	movq	%rsi, -40(%rbp)
	movb	$0, -18(%rbp)
	movb	$0, -17(%rbp)
	movb	$1, -18(%rbp)
	movb	$1, -17(%rbp)
Ltmp237:
	leaq	-40(%rbp), %rdi
	leaq	-48(%rbp), %rsi
	callq	__ZN4core3cmp5impls57_$LT$impl$u20$core..cmp..PartialOrd$u20$for$u20$usize$GT$2ge17hcfc93d2e61aac770E
Ltmp238:
	movb	%al, -49(%rbp)
	jmp	LBB135_2
LBB135_1:
	movq	-16(%rbp), %rdi
	callq	__Unwind_Resume
	ud2
LBB135_2:
	movb	-49(%rbp), %al
	testb	$1, %al
	jne	LBB135_5
	jmp	LBB135_6
LBB135_3:
	testb	$1, -18(%rbp)
	jne	LBB135_10
	jmp	LBB135_1
LBB135_4:
	movb	$0, -17(%rbp)
	jmp	LBB135_3
LBB135_5:
	movb	$0, -17(%rbp)
	movq	-40(%rbp), %rax
	movq	%rax, -32(%rbp)
	jmp	LBB135_7
LBB135_6:
	movb	$0, -18(%rbp)
	movq	-48(%rbp), %rax
	movq	%rax, -32(%rbp)
LBB135_7:
	testb	$1, -17(%rbp)
	jne	LBB135_11
LBB135_8:
	testb	$1, -18(%rbp)
	jne	LBB135_12
LBB135_9:
	movq	-32(%rbp), %rax
	addq	$64, %rsp
	popq	%rbp
	retq
LBB135_10:
	movb	$0, -18(%rbp)
	jmp	LBB135_1
LBB135_11:
	movb	$0, -17(%rbp)
	jmp	LBB135_8
LBB135_12:
	movb	$0, -18(%rbp)
	jmp	LBB135_9
LBB135_13:
Ltmp239:
	movl	%edx, %ecx
	movq	%rax, -16(%rbp)
	movl	%ecx, -8(%rbp)
	jmp	LBB135_4
Lfunc_end26:
	.cfi_endproc
	.section	__TEXT,__gcc_except_tab
	.p2align	2
GCC_except_table135:
Lexception26:
	.byte	255
	.byte	255
	.byte	1
	.uleb128 Lcst_end26-Lcst_begin26
Lcst_begin26:
	.uleb128 Ltmp237-Lfunc_begin26
	.uleb128 Ltmp238-Ltmp237
	.uleb128 Ltmp239-Lfunc_begin26
	.byte	0
	.uleb128 Ltmp238-Lfunc_begin26
	.uleb128 Lfunc_end26-Ltmp238
	.byte	0
	.byte	0
Lcst_end26:
	.p2align	2

	.section	__TEXT,__text,regular,pure_instructions
	.p2align	4, 0x90
__ZN4core3cmp3max17hfea3c5388ed7f210E:
	.cfi_startproc
	pushq	%rbp
	.cfi_def_cfa_offset 16
	.cfi_offset %rbp, -16
	movq	%rsp, %rbp
	.cfi_def_cfa_register %rbp
	subq	$16, %rsp
	callq	__ZN4core3cmp3Ord3max17h6980fd450d6d2437E
	movq	%rax, -8(%rbp)
	movq	-8(%rbp), %rax
	addq	$16, %rsp
	popq	%rbp
	retq
	.cfi_endproc

	.p2align	4, 0x90
__ZN4core3cmp5impls57_$LT$impl$u20$core..cmp..PartialOrd$u20$for$u20$usize$GT$2ge17hcfc93d2e61aac770E:
	.cfi_startproc
	pushq	%rbp
	.cfi_def_cfa_offset 16
	.cfi_offset %rbp, -16
	movq	%rsp, %rbp
	.cfi_def_cfa_register %rbp
	movq	(%rdi), %rdi
	cmpq	(%rsi), %rdi
	setae	%al
	andb	$1, %al
	movzbl	%al, %eax
	popq	%rbp
	retq
	.cfi_endproc

	.p2align	4, 0x90
__ZN4core3cmp5impls91_$LT$impl$u20$core..cmp..PartialEq$LT$$RF$$u27$b$u20$B$GT$$u20$for$u20$$RF$$u27$a$u20$A$GT$2eq17h21e8aaff9646cd9cE:
	.cfi_startproc
	pushq	%rbp
	.cfi_def_cfa_offset 16
	.cfi_offset %rbp, -16
	movq	%rsp, %rbp
	.cfi_def_cfa_register %rbp
	subq	$16, %rsp
	movq	(%rdi), %rax
	movq	8(%rdi), %rdi
	movq	(%rsi), %rdx
	movq	8(%rsi), %rcx
	movq	%rdi, -8(%rbp)
	movq	%rax, %rdi
	movq	-8(%rbp), %rsi
	callq	__ZN4core5slice81_$LT$impl$u20$core..cmp..PartialEq$LT$$u5b$B$u5d$$GT$$u20$for$u20$$u5b$A$u5d$$GT$2eq17h71c10f37d6cb40ddE
	movb	%al, -9(%rbp)
	movb	-9(%rbp), %al
	andb	$1, %al
	movzbl	%al, %eax
	addq	$16, %rsp
	popq	%rbp
	retq
	.cfi_endproc

	.p2align	4, 0x90
__ZN4core3cmp5impls91_$LT$impl$u20$core..cmp..PartialEq$LT$$RF$$u27$b$u20$B$GT$$u20$for$u20$$RF$$u27$a$u20$A$GT$2eq17ha0617db51849766cE:
	.cfi_startproc
	pushq	%rbp
	.cfi_def_cfa_offset 16
	.cfi_offset %rbp, -16
	movq	%rsp, %rbp
	.cfi_def_cfa_register %rbp
	subq	$16, %rsp
	movq	(%rdi), %rax
	movq	8(%rdi), %rdi
	movq	(%rsi), %rdx
	movq	8(%rsi), %rcx
	movq	%rdi, -8(%rbp)
	movq	%rax, %rdi
	movq	-8(%rbp), %rsi
	callq	__ZN4core3str6traits54_$LT$impl$u20$core..cmp..PartialEq$u20$for$u20$str$GT$2eq17h0b986a1aa96f3d85E
	movb	%al, -9(%rbp)
	movb	-9(%rbp), %al
	andb	$1, %al
	movzbl	%al, %eax
	addq	$16, %rsp
	popq	%rbp
	retq
	.cfi_endproc

	.p2align	4, 0x90
__ZN4core3cmp5impls92_$LT$impl$u20$core..cmp..PartialOrd$LT$$RF$$u27$b$u20$B$GT$$u20$for$u20$$RF$$u27$a$u20$A$GT$2le17h2e667282f5c184a4E:
	.cfi_startproc
	pushq	%rbp
	.cfi_def_cfa_offset 16
	.cfi_offset %rbp, -16
	movq	%rsp, %rbp
	.cfi_def_cfa_register %rbp
	subq	$16, %rsp
	movq	(%rdi), %rdi
	movq	(%rsi), %rsi
	callq	__ZN4core3cmp10PartialOrd2le17hcb5d77361f385be7E
	movb	%al, -1(%rbp)
	movb	-1(%rbp), %al
	andb	$1, %al
	movzbl	%al, %eax
	addq	$16, %rsp
	popq	%rbp
	retq
	.cfi_endproc

	.p2align	4, 0x90
__ZN4core3fmt10ArgumentV13new17h397dcfe25deb0ac4E:
	.cfi_startproc
	pushq	%rbp
	.cfi_def_cfa_offset 16
	.cfi_offset %rbp, -16
	movq	%rsp, %rbp
	.cfi_def_cfa_register %rbp
	subq	$56, %rsp
	movq	%rsi, -16(%rbp)
	movq	-16(%rbp), %rsi
	movq	%rdi, -40(%rbp)
	movq	%rsi, -48(%rbp)
	movq	-40(%rbp), %rax
	movq	%rax, -8(%rbp)
	movq	-8(%rbp), %rcx
	movq	%rcx, -56(%rbp)
	movq	-56(%rbp), %rax
	movq	%rax, -32(%rbp)
	movq	-48(%rbp), %rcx
	movq	%rcx, -24(%rbp)
	movq	-32(%rbp), %rax
	movq	-24(%rbp), %rdx
	addq	$56, %rsp
	popq	%rbp
	retq
	.cfi_endproc

	.p2align	4, 0x90
__ZN4core3fmt10ArgumentV13new17h3b2cc3e286926dffE:
	.cfi_startproc
	pushq	%rbp
	.cfi_def_cfa_offset 16
	.cfi_offset %rbp, -16
	movq	%rsp, %rbp
	.cfi_def_cfa_register %rbp
	subq	$56, %rsp
	movq	%rsi, -16(%rbp)
	movq	-16(%rbp), %rsi
	movq	%rdi, -40(%rbp)
	movq	%rsi, -48(%rbp)
	movq	-40(%rbp), %rax
	movq	%rax, -8(%rbp)
	movq	-8(%rbp), %rcx
	movq	%rcx, -56(%rbp)
	movq	-56(%rbp), %rax
	movq	%rax, -32(%rbp)
	movq	-48(%rbp), %rcx
	movq	%rcx, -24(%rbp)
	movq	-32(%rbp), %rax
	movq	-24(%rbp), %rdx
	addq	$56, %rsp
	popq	%rbp
	retq
	.cfi_endproc

	.p2align	4, 0x90
__ZN4core3fmt10ArgumentV13new17h3f4107bd5458aaddE:
	.cfi_startproc
	pushq	%rbp
	.cfi_def_cfa_offset 16
	.cfi_offset %rbp, -16
	movq	%rsp, %rbp
	.cfi_def_cfa_register %rbp
	subq	$56, %rsp
	movq	%rsi, -16(%rbp)
	movq	-16(%rbp), %rsi
	movq	%rdi, -40(%rbp)
	movq	%rsi, -48(%rbp)
	movq	-40(%rbp), %rax
	movq	%rax, -8(%rbp)
	movq	-8(%rbp), %rcx
	movq	%rcx, -56(%rbp)
	movq	-56(%rbp), %rax
	movq	%rax, -32(%rbp)
	movq	-48(%rbp), %rcx
	movq	%rcx, -24(%rbp)
	movq	-32(%rbp), %rax
	movq	-24(%rbp), %rdx
	addq	$56, %rsp
	popq	%rbp
	retq
	.cfi_endproc

	.p2align	4, 0x90
__ZN4core3fmt10ArgumentV13new17h688762db39555334E:
	.cfi_startproc
	pushq	%rbp
	.cfi_def_cfa_offset 16
	.cfi_offset %rbp, -16
	movq	%rsp, %rbp
	.cfi_def_cfa_register %rbp
	subq	$56, %rsp
	movq	%rsi, -16(%rbp)
	movq	-16(%rbp), %rsi
	movq	%rdi, -40(%rbp)
	movq	%rsi, -48(%rbp)
	movq	-40(%rbp), %rax
	movq	%rax, -8(%rbp)
	movq	-8(%rbp), %rcx
	movq	%rcx, -56(%rbp)
	movq	-56(%rbp), %rax
	movq	%rax, -32(%rbp)
	movq	-48(%rbp), %rcx
	movq	%rcx, -24(%rbp)
	movq	-32(%rbp), %rax
	movq	-24(%rbp), %rdx
	addq	$56, %rsp
	popq	%rbp
	retq
	.cfi_endproc

	.p2align	4, 0x90
__ZN4core3fmt10ArgumentV13new17h7bbacf1953ea142fE:
	.cfi_startproc
	pushq	%rbp
	.cfi_def_cfa_offset 16
	.cfi_offset %rbp, -16
	movq	%rsp, %rbp
	.cfi_def_cfa_register %rbp
	subq	$56, %rsp
	movq	%rsi, -16(%rbp)
	movq	-16(%rbp), %rsi
	movq	%rdi, -40(%rbp)
	movq	%rsi, -48(%rbp)
	movq	-40(%rbp), %rax
	movq	%rax, -8(%rbp)
	movq	-8(%rbp), %rcx
	movq	%rcx, -56(%rbp)
	movq	-56(%rbp), %rax
	movq	%rax, -32(%rbp)
	movq	-48(%rbp), %rcx
	movq	%rcx, -24(%rbp)
	movq	-32(%rbp), %rax
	movq	-24(%rbp), %rdx
	addq	$56, %rsp
	popq	%rbp
	retq
	.cfi_endproc

	.p2align	4, 0x90
__ZN4core3fmt10ArgumentV13new17hc41568c2fee73c03E:
	.cfi_startproc
	pushq	%rbp
	.cfi_def_cfa_offset 16
	.cfi_offset %rbp, -16
	movq	%rsp, %rbp
	.cfi_def_cfa_register %rbp
	subq	$56, %rsp
	movq	%rsi, -16(%rbp)
	movq	-16(%rbp), %rsi
	movq	%rdi, -40(%rbp)
	movq	%rsi, -48(%rbp)
	movq	-40(%rbp), %rax
	movq	%rax, -8(%rbp)
	movq	-8(%rbp), %rcx
	movq	%rcx, -56(%rbp)
	movq	-56(%rbp), %rax
	movq	%rax, -32(%rbp)
	movq	-48(%rbp), %rcx
	movq	%rcx, -24(%rbp)
	movq	-32(%rbp), %rax
	movq	-24(%rbp), %rdx
	addq	$56, %rsp
	popq	%rbp
	retq
	.cfi_endproc

	.p2align	4, 0x90
__ZN4core3fmt10ArgumentV13new17hcbec25c6d4bdfc3fE:
	.cfi_startproc
	pushq	%rbp
	.cfi_def_cfa_offset 16
	.cfi_offset %rbp, -16
	movq	%rsp, %rbp
	.cfi_def_cfa_register %rbp
	subq	$56, %rsp
	movq	%rsi, -16(%rbp)
	movq	-16(%rbp), %rsi
	movq	%rdi, -40(%rbp)
	movq	%rsi, -48(%rbp)
	movq	-40(%rbp), %rax
	movq	%rax, -8(%rbp)
	movq	-8(%rbp), %rcx
	movq	%rcx, -56(%rbp)
	movq	-56(%rbp), %rax
	movq	%rax, -32(%rbp)
	movq	-48(%rbp), %rcx
	movq	%rcx, -24(%rbp)
	movq	-32(%rbp), %rax
	movq	-24(%rbp), %rdx
	addq	$56, %rsp
	popq	%rbp
	retq
	.cfi_endproc

	.p2align	4, 0x90
__ZN4core3fmt10ArgumentV13new17he02c1bb4595d6693E:
	.cfi_startproc
	pushq	%rbp
	.cfi_def_cfa_offset 16
	.cfi_offset %rbp, -16
	movq	%rsp, %rbp
	.cfi_def_cfa_register %rbp
	subq	$56, %rsp
	movq	%rsi, -16(%rbp)
	movq	-16(%rbp), %rsi
	movq	%rdi, -40(%rbp)
	movq	%rsi, -48(%rbp)
	movq	-40(%rbp), %rax
	movq	%rax, -8(%rbp)
	movq	-8(%rbp), %rcx
	movq	%rcx, -56(%rbp)
	movq	-56(%rbp), %rax
	movq	%rax, -32(%rbp)
	movq	-48(%rbp), %rcx
	movq	%rcx, -24(%rbp)
	movq	-32(%rbp), %rax
	movq	-24(%rbp), %rdx
	addq	$56, %rsp
	popq	%rbp
	retq
	.cfi_endproc

	.p2align	4, 0x90
__ZN4core3fmt10ArgumentV13new17hed40f7c3202ef4c5E:
	.cfi_startproc
	pushq	%rbp
	.cfi_def_cfa_offset 16
	.cfi_offset %rbp, -16
	movq	%rsp, %rbp
	.cfi_def_cfa_register %rbp
	subq	$56, %rsp
	movq	%rsi, -16(%rbp)
	movq	-16(%rbp), %rsi
	movq	%rdi, -40(%rbp)
	movq	%rsi, -48(%rbp)
	movq	-40(%rbp), %rax
	movq	%rax, -8(%rbp)
	movq	-8(%rbp), %rcx
	movq	%rcx, -56(%rbp)
	movq	-56(%rbp), %rax
	movq	%rax, -32(%rbp)
	movq	-48(%rbp), %rcx
	movq	%rcx, -24(%rbp)
	movq	-32(%rbp), %rax
	movq	-24(%rbp), %rdx
	addq	$56, %rsp
	popq	%rbp
	retq
	.cfi_endproc

	.p2align	4, 0x90
__ZN4core3fmt10ArgumentV13new17hfac0a2b648fd62feE:
	.cfi_startproc
	pushq	%rbp
	.cfi_def_cfa_offset 16
	.cfi_offset %rbp, -16
	movq	%rsp, %rbp
	.cfi_def_cfa_register %rbp
	subq	$56, %rsp
	movq	%rsi, -16(%rbp)
	movq	-16(%rbp), %rsi
	movq	%rdi, -40(%rbp)
	movq	%rsi, -48(%rbp)
	movq	-40(%rbp), %rax
	movq	%rax, -8(%rbp)
	movq	-8(%rbp), %rcx
	movq	%rcx, -56(%rbp)
	movq	-56(%rbp), %rax
	movq	%rax, -32(%rbp)
	movq	-48(%rbp), %rcx
	movq	%rcx, -24(%rbp)
	movq	-32(%rbp), %rax
	movq	-24(%rbp), %rdx
	addq	$56, %rsp
	popq	%rbp
	retq
	.cfi_endproc

	.p2align	4, 0x90
__ZN4core3fmt3num50_$LT$impl$u20$core..fmt..Debug$u20$for$u20$u64$GT$3fmt17h445ccc6725f3e611E:
	.cfi_startproc
	pushq	%rbp
	.cfi_def_cfa_offset 16
	.cfi_offset %rbp, -16
	movq	%rsp, %rbp
	.cfi_def_cfa_register %rbp
	subq	$32, %rsp
	movq	%rdi, -16(%rbp)
	movq	%rsi, %rdi
	movq	%rsi, -24(%rbp)
	callq	__ZN4core3fmt9Formatter15debug_lower_hex17h7cf5d7e46adcea32E
	movb	%al, -25(%rbp)
	movb	-25(%rbp), %al
	testb	$1, %al
	jne	LBB151_2
	jmp	LBB151_3
LBB151_2:
	movq	-16(%rbp), %rdi
	movq	-24(%rbp), %rsi
	callq	__ZN4core3fmt3num53_$LT$impl$u20$core..fmt..LowerHex$u20$for$u20$u64$GT$3fmt17hc965407d07fbac7fE
	andb	$1, %al
	movb	%al, -1(%rbp)
	jmp	LBB151_4
LBB151_3:
	movq	-24(%rbp), %rdi
	callq	__ZN4core3fmt9Formatter15debug_upper_hex17h7d56eed15821be3eE
	movb	%al, -26(%rbp)
	jmp	LBB151_5
LBB151_4:
	jmp	LBB151_11
LBB151_5:
	movb	-26(%rbp), %al
	testb	$1, %al
	jne	LBB151_6
	jmp	LBB151_7
LBB151_6:
	movq	-16(%rbp), %rdi
	movq	-24(%rbp), %rsi
	callq	__ZN4core3fmt3num53_$LT$impl$u20$core..fmt..UpperHex$u20$for$u20$u64$GT$3fmt17ha9a92f7d79e01a3dE
	andb	$1, %al
	movb	%al, -1(%rbp)
	jmp	LBB151_8
LBB151_7:
	movq	-16(%rbp), %rdi
	movq	-24(%rbp), %rsi
	callq	__ZN4core3fmt3num52_$LT$impl$u20$core..fmt..Display$u20$for$u20$u64$GT$3fmt17h0f7f62613d2dedd8E
	andb	$1, %al
	movb	%al, -1(%rbp)
	jmp	LBB151_9
LBB151_8:
	jmp	LBB151_10
LBB151_9:
	jmp	LBB151_10
LBB151_10:
	jmp	LBB151_11
LBB151_11:
	movb	-1(%rbp), %al
	andb	$1, %al
	movzbl	%al, %eax
	addq	$32, %rsp
	popq	%rbp
	retq
	.cfi_endproc

	.p2align	4, 0x90
__ZN4core3fmt3num52_$LT$impl$u20$core..fmt..Debug$u20$for$u20$usize$GT$3fmt17h4e353b6b289d8e85E:
	.cfi_startproc
	pushq	%rbp
	.cfi_def_cfa_offset 16
	.cfi_offset %rbp, -16
	movq	%rsp, %rbp
	.cfi_def_cfa_register %rbp
	subq	$32, %rsp
	movq	%rdi, -16(%rbp)
	movq	%rsi, %rdi
	movq	%rsi, -24(%rbp)
	callq	__ZN4core3fmt9Formatter15debug_lower_hex17h7cf5d7e46adcea32E
	movb	%al, -25(%rbp)
	movb	-25(%rbp), %al
	testb	$1, %al
	jne	LBB152_2
	jmp	LBB152_3
LBB152_2:
	movq	-16(%rbp), %rdi
	movq	-24(%rbp), %rsi
	callq	__ZN4core3fmt3num55_$LT$impl$u20$core..fmt..LowerHex$u20$for$u20$usize$GT$3fmt17hf4f5dec34d2b8bf2E
	andb	$1, %al
	movb	%al, -1(%rbp)
	jmp	LBB152_4
LBB152_3:
	movq	-24(%rbp), %rdi
	callq	__ZN4core3fmt9Formatter15debug_upper_hex17h7d56eed15821be3eE
	movb	%al, -26(%rbp)
	jmp	LBB152_5
LBB152_4:
	jmp	LBB152_11
LBB152_5:
	movb	-26(%rbp), %al
	testb	$1, %al
	jne	LBB152_6
	jmp	LBB152_7
LBB152_6:
	movq	-16(%rbp), %rdi
	movq	-24(%rbp), %rsi
	callq	__ZN4core3fmt3num55_$LT$impl$u20$core..fmt..UpperHex$u20$for$u20$usize$GT$3fmt17h7ac9e83ab5b0887eE
	andb	$1, %al
	movb	%al, -1(%rbp)
	jmp	LBB152_8
LBB152_7:
	movq	-16(%rbp), %rdi
	movq	-24(%rbp), %rsi
	callq	__ZN4core3fmt3num54_$LT$impl$u20$core..fmt..Display$u20$for$u20$usize$GT$3fmt17h5b52f8972964f666E
	andb	$1, %al
	movb	%al, -1(%rbp)
	jmp	LBB152_9
LBB152_8:
	jmp	LBB152_10
LBB152_9:
	jmp	LBB152_10
LBB152_10:
	jmp	LBB152_11
LBB152_11:
	movb	-1(%rbp), %al
	andb	$1, %al
	movzbl	%al, %eax
	addq	$32, %rsp
	popq	%rbp
	retq
	.cfi_endproc

	.p2align	4, 0x90
__ZN4core3fmt9Arguments16new_v1_formatted17h3d91bfaa38aa19a7E:
	.cfi_startproc
	pushq	%rbp
	.cfi_def_cfa_offset 16
	.cfi_offset %rbp, -16
	movq	%rsp, %rbp
	.cfi_def_cfa_register %rbp
	subq	$16, %rsp
	movq	%rdi, %rax
	movq	16(%rbp), %r10
	movq	%r9, -16(%rbp)
	movq	%r10, -8(%rbp)
	movq	%rsi, (%rdi)
	movq	%rdx, 8(%rdi)
	movq	-16(%rbp), %rdx
	movq	-8(%rbp), %rsi
	movq	%rdx, 16(%rdi)
	movq	%rsi, 24(%rdi)
	movq	%rcx, 32(%rdi)
	movq	%r8, 40(%rdi)
	addq	$16, %rsp
	popq	%rbp
	retq
	.cfi_endproc

	.p2align	4, 0x90
__ZN4core3fmt9Arguments6new_v117hc3060402a49967adE:
	.cfi_startproc
	pushq	%rbp
	.cfi_def_cfa_offset 16
	.cfi_offset %rbp, -16
	movq	%rsp, %rbp
	.cfi_def_cfa_register %rbp
	subq	$16, %rsp
	movq	%rdi, %rax
	movq	$0, -16(%rbp)
	movq	%rsi, (%rdi)
	movq	%rdx, 8(%rdi)
	movq	-16(%rbp), %rdx
	movq	-8(%rbp), %rsi
	movq	%rdx, 16(%rdi)
	movq	%rsi, 24(%rdi)
	movq	%rcx, 32(%rdi)
	movq	%r8, 40(%rdi)
	addq	$16, %rsp
	popq	%rbp
	retq
	.cfi_endproc

	.p2align	4, 0x90
__ZN4core3mem11size_of_val17h60d5eb98785bd671E:
	.cfi_startproc
	pushq	%rbp
	.cfi_def_cfa_offset 16
	.cfi_offset %rbp, -16
	movq	%rsp, %rbp
	.cfi_def_cfa_register %rbp
	subq	$24, %rsp
	movq	$72, -8(%rbp)
	movq	-8(%rbp), %rax
	movq	%rdi, -16(%rbp)
	movq	%rax, -24(%rbp)
	movq	-24(%rbp), %rax
	addq	$24, %rsp
	popq	%rbp
	retq
	.cfi_endproc

	.p2align	4, 0x90
__ZN4core3mem11size_of_val17h857d49b56963fbe5E:
	.cfi_startproc
	pushq	%rbp
	.cfi_def_cfa_offset 16
	.cfi_offset %rbp, -16
	movq	%rsp, %rbp
	.cfi_def_cfa_register %rbp
	subq	$24, %rsp
	shlq	$0, %rsi
	movq	%rsi, -8(%rbp)
	movq	-8(%rbp), %rax
	movq	%rdi, -16(%rbp)
	movq	%rax, -24(%rbp)
	movq	-24(%rbp), %rax
	addq	$24, %rsp
	popq	%rbp
	retq
	.cfi_endproc

	.p2align	4, 0x90
__ZN4core3mem12align_of_val17h0426727ebbd188a0E:
	.cfi_startproc
	pushq	%rbp
	.cfi_def_cfa_offset 16
	.cfi_offset %rbp, -16
	movq	%rsp, %rbp
	.cfi_def_cfa_register %rbp
	subq	$24, %rsp
	movq	$8, -8(%rbp)
	movq	-8(%rbp), %rax
	movq	%rdi, -16(%rbp)
	movq	%rax, -24(%rbp)
	movq	-24(%rbp), %rax
	addq	$24, %rsp
	popq	%rbp
	retq
	.cfi_endproc

	.p2align	4, 0x90
__ZN4core3mem7size_of17hbd521d92caede32eE:
	.cfi_startproc
	pushq	%rbp
	.cfi_def_cfa_offset 16
	.cfi_offset %rbp, -16
	movq	%rsp, %rbp
	.cfi_def_cfa_register %rbp
	subq	$16, %rsp
	movq	$4, -8(%rbp)
	movq	-8(%rbp), %rax
	movq	%rax, -16(%rbp)
	movq	-16(%rbp), %rax
	addq	$16, %rsp
	popq	%rbp
	retq
	.cfi_endproc

	.p2align	4, 0x90
__ZN4core3mem7size_of17hc85f0091669efbbaE:
	.cfi_startproc
	pushq	%rbp
	.cfi_def_cfa_offset 16
	.cfi_offset %rbp, -16
	movq	%rsp, %rbp
	.cfi_def_cfa_register %rbp
	subq	$16, %rsp
	movq	$1, -8(%rbp)
	movq	-8(%rbp), %rax
	movq	%rax, -16(%rbp)
	movq	-16(%rbp), %rax
	addq	$16, %rsp
	popq	%rbp
	retq
	.cfi_endproc

	.p2align	4, 0x90
__ZN4core3mem7size_of17hf91cec7b7ba55492E:
	.cfi_startproc
	pushq	%rbp
	.cfi_def_cfa_offset 16
	.cfi_offset %rbp, -16
	movq	%rsp, %rbp
	.cfi_def_cfa_register %rbp
	subq	$16, %rsp
	movq	$8, -8(%rbp)
	movq	-8(%rbp), %rax
	movq	%rax, -16(%rbp)
	movq	-16(%rbp), %rax
	addq	$16, %rsp
	popq	%rbp
	retq
	.cfi_endproc

	.p2align	4, 0x90
__ZN4core3mem8align_of17h195604b2ef2f3f03E:
	.cfi_startproc
	pushq	%rbp
	.cfi_def_cfa_offset 16
	.cfi_offset %rbp, -16
	movq	%rsp, %rbp
	.cfi_def_cfa_register %rbp
	subq	$16, %rsp
	movq	$1, -8(%rbp)
	movq	-8(%rbp), %rax
	movq	%rax, -16(%rbp)
	movq	-16(%rbp), %rax
	addq	$16, %rsp
	popq	%rbp
	retq
	.cfi_endproc

	.p2align	4, 0x90
__ZN4core3mem8align_of17hac49404a9d1fa1e4E:
	.cfi_startproc
	pushq	%rbp
	.cfi_def_cfa_offset 16
	.cfi_offset %rbp, -16
	movq	%rsp, %rbp
	.cfi_def_cfa_register %rbp
	subq	$16, %rsp
	movq	$4, -8(%rbp)
	movq	-8(%rbp), %rax
	movq	%rax, -16(%rbp)
	movq	-16(%rbp), %rax
	addq	$16, %rsp
	popq	%rbp
	retq
	.cfi_endproc

	.p2align	4, 0x90
__ZN4core3num12NonZeroUsize13new_unchecked17ha0a0d421b25a3458E:
	.cfi_startproc
	pushq	%rbp
	.cfi_def_cfa_offset 16
	.cfi_offset %rbp, -16
	movq	%rsp, %rbp
	.cfi_def_cfa_register %rbp
	subq	$16, %rsp
	movq	%rdi, -8(%rbp)
	movq	-8(%rbp), %rdi
	movq	%rdi, -16(%rbp)
	movq	-16(%rbp), %rax
	addq	$16, %rsp
	popq	%rbp
	retq
	.cfi_endproc

	.p2align	4, 0x90
__ZN4core3num12NonZeroUsize3get17h7ddb408e97fb1d32E:
	.cfi_startproc
	pushq	%rbp
	.cfi_def_cfa_offset 16
	.cfi_offset %rbp, -16
	movq	%rsp, %rbp
	.cfi_def_cfa_register %rbp
	movq	%rdi, %rax
	popq	%rbp
	retq
	.cfi_endproc

	.p2align	4, 0x90
__ZN4core3num21_$LT$impl$u20$i16$GT$11is_negative17h4313de9d6e0a0e20E:
	.cfi_startproc
	pushq	%rbp
	.cfi_def_cfa_offset 16
	.cfi_offset %rbp, -16
	movq	%rsp, %rbp
	.cfi_def_cfa_register %rbp
	movw	%di, %ax
	cmpw	$0, %ax
	setl	%cl
	andb	$1, %cl
	movzbl	%cl, %eax
	popq	%rbp
	retq
	.cfi_endproc

	.p2align	4, 0x90
__ZN4core3num21_$LT$impl$u20$i16$GT$3abs17hd06809ddf0fc470fE:
	.cfi_startproc
	pushq	%rbp
	.cfi_def_cfa_offset 16
	.cfi_offset %rbp, -16
	movq	%rsp, %rbp
	.cfi_def_cfa_register %rbp
	subq	$16, %rsp
	movw	%di, %ax
	movzwl	%ax, %edi
	movw	%ax, -4(%rbp)
	callq	__ZN4core3num21_$LT$impl$u20$i16$GT$11is_negative17h4313de9d6e0a0e20E
	movb	%al, -5(%rbp)
	movb	-5(%rbp), %al
	testb	$1, %al
	jne	LBB166_2
	jmp	LBB166_3
LBB166_2:
	movw	-4(%rbp), %ax
	cmpw	$-32768, %ax
	sete	%cl
	testb	$1, %cl
	jne	LBB166_6
	jmp	LBB166_4
LBB166_3:
	movw	-4(%rbp), %ax
	movw	%ax, -2(%rbp)
	jmp	LBB166_5
LBB166_4:
	xorl	%eax, %eax
	movw	%ax, %cx
	movw	-4(%rbp), %dx
	subw	%dx, %cx
	movw	%cx, -2(%rbp)
LBB166_5:
	movw	-2(%rbp), %ax
	addq	$16, %rsp
	popq	%rbp
	retq
LBB166_6:
	leaq	l___unnamed_9(%rip), %rdi
	callq	__ZN4core9panicking5panic17h9e14359664dfef5fE
	.cfi_endproc

	.p2align	4, 0x90
__ZN4core3num21_$LT$impl$u20$i64$GT$11is_negative17h8a95b4e03de331faE:
	.cfi_startproc
	pushq	%rbp
	.cfi_def_cfa_offset 16
	.cfi_offset %rbp, -16
	movq	%rsp, %rbp
	.cfi_def_cfa_register %rbp
	cmpq	$0, %rdi
	setl	%al
	andb	$1, %al
	movzbl	%al, %eax
	popq	%rbp
	retq
	.cfi_endproc

	.p2align	4, 0x90
__ZN4core3num21_$LT$impl$u20$i64$GT$3abs17h1462c3222bc50ae6E:
	.cfi_startproc
	pushq	%rbp
	.cfi_def_cfa_offset 16
	.cfi_offset %rbp, -16
	movq	%rsp, %rbp
	.cfi_def_cfa_register %rbp
	subq	$32, %rsp
	movq	%rdi, -16(%rbp)
	callq	__ZN4core3num21_$LT$impl$u20$i64$GT$11is_negative17h8a95b4e03de331faE
	movb	%al, -17(%rbp)
	movb	-17(%rbp), %al
	testb	$1, %al
	jne	LBB168_2
	jmp	LBB168_3
LBB168_2:
	movabsq	$-9223372036854775808, %rax
	movq	-16(%rbp), %rcx
	cmpq	%rax, %rcx
	sete	%dl
	testb	$1, %dl
	jne	LBB168_6
	jmp	LBB168_4
LBB168_3:
	movq	-16(%rbp), %rax
	movq	%rax, -8(%rbp)
	jmp	LBB168_5
LBB168_4:
	xorl	%eax, %eax
	movl	%eax, %ecx
	movq	-16(%rbp), %rdx
	subq	%rdx, %rcx
	movq	%rcx, -8(%rbp)
LBB168_5:
	movq	-8(%rbp), %rax
	addq	$32, %rsp
	popq	%rbp
	retq
LBB168_6:
	leaq	l___unnamed_9(%rip), %rdi
	callq	__ZN4core9panicking5panic17h9e14359664dfef5fE
	.cfi_endproc

	.p2align	4, 0x90
__ZN4core3num21_$LT$impl$u20$u32$GT$9max_value17h6db3e117f89ed9acE:
	.cfi_startproc
	pushq	%rbp
	.cfi_def_cfa_offset 16
	.cfi_offset %rbp, -16
	movq	%rsp, %rbp
	.cfi_def_cfa_register %rbp
	movl	$4294967295, %eax
	popq	%rbp
	retq
	.cfi_endproc

	.p2align	4, 0x90
__ZN4core3num23_$LT$impl$u20$usize$GT$11checked_add17h214fec1ff95646cfE:
	.cfi_startproc
	pushq	%rbp
	.cfi_def_cfa_offset 16
	.cfi_offset %rbp, -16
	movq	%rsp, %rbp
	.cfi_def_cfa_register %rbp
	subq	$32, %rsp
	callq	__ZN4core3num23_$LT$impl$u20$usize$GT$15overflowing_add17h98bec1c06b11aa0eE
	movq	%rax, -24(%rbp)
	movb	%dl, -25(%rbp)
	movb	-25(%rbp), %al
	testb	$1, %al
	jne	LBB170_2
	jmp	LBB170_3
LBB170_2:
	movq	$0, -16(%rbp)
	jmp	LBB170_4
LBB170_3:
	movq	-24(%rbp), %rax
	movq	%rax, -8(%rbp)
	movq	$1, -16(%rbp)
LBB170_4:
	movq	-16(%rbp), %rax
	movq	-8(%rbp), %rdx
	addq	$32, %rsp
	popq	%rbp
	retq
	.cfi_endproc

	.p2align	4, 0x90
__ZN4core3num23_$LT$impl$u20$usize$GT$11checked_mul17hec6dd7893e35c5c1E:
	.cfi_startproc
	pushq	%rbp
	.cfi_def_cfa_offset 16
	.cfi_offset %rbp, -16
	movq	%rsp, %rbp
	.cfi_def_cfa_register %rbp
	subq	$32, %rsp
	callq	__ZN4core3num23_$LT$impl$u20$usize$GT$15overflowing_mul17hd5c8aae58e22950dE
	movq	%rax, -24(%rbp)
	movb	%dl, -25(%rbp)
	movb	-25(%rbp), %al
	testb	$1, %al
	jne	LBB171_2
	jmp	LBB171_3
LBB171_2:
	movq	$0, -16(%rbp)
	jmp	LBB171_4
LBB171_3:
	movq	-24(%rbp), %rax
	movq	%rax, -8(%rbp)
	movq	$1, -16(%rbp)
LBB171_4:
	movq	-16(%rbp), %rax
	movq	-8(%rbp), %rdx
	addq	$32, %rsp
	popq	%rbp
	retq
	.cfi_endproc

	.p2align	4, 0x90
__ZN4core3num23_$LT$impl$u20$usize$GT$12wrapping_add17h5f5dcc2ff4b4840cE:
	.cfi_startproc
	pushq	%rbp
	.cfi_def_cfa_offset 16
	.cfi_offset %rbp, -16
	movq	%rsp, %rbp
	.cfi_def_cfa_register %rbp
	subq	$16, %rsp
	addq	%rsi, %rdi
	movq	%rdi, -8(%rbp)
	movq	-8(%rbp), %rax
	movq	%rax, -16(%rbp)
	movq	-16(%rbp), %rax
	addq	$16, %rsp
	popq	%rbp
	retq
	.cfi_endproc

	.p2align	4, 0x90
__ZN4core3num23_$LT$impl$u20$usize$GT$12wrapping_sub17h678b23997a3005c9E:
	.cfi_startproc
	pushq	%rbp
	.cfi_def_cfa_offset 16
	.cfi_offset %rbp, -16
	movq	%rsp, %rbp
	.cfi_def_cfa_register %rbp
	subq	$16, %rsp
	subq	%rsi, %rdi
	movq	%rdi, -8(%rbp)
	movq	-8(%rbp), %rax
	movq	%rax, -16(%rbp)
	movq	-16(%rbp), %rax
	addq	$16, %rsp
	popq	%rbp
	retq
	.cfi_endproc

	.p2align	4, 0x90
__ZN4core3num23_$LT$impl$u20$usize$GT$14saturating_add17hc4727c616d197ecdE:
	.cfi_startproc
	pushq	%rbp
	.cfi_def_cfa_offset 16
	.cfi_offset %rbp, -16
	movq	%rsp, %rbp
	.cfi_def_cfa_register %rbp
	subq	$48, %rsp
	callq	__ZN4core3num23_$LT$impl$u20$usize$GT$11checked_add17h214fec1ff95646cfE
	movq	%rdx, -8(%rbp)
	movq	%rax, -16(%rbp)
	movq	-16(%rbp), %rax
	testq	%rax, %rax
	movq	%rax, -32(%rbp)
	je	LBB174_2
	jmp	LBB174_6
LBB174_6:
	movq	-32(%rbp), %rax
	subq	$1, %rax
	movq	%rax, -40(%rbp)
	je	LBB174_4
	jmp	LBB174_3
LBB174_2:
	callq	__ZN4core3num23_$LT$impl$u20$usize$GT$9max_value17h12b4629b03b8cfd4E
	movq	%rax, -24(%rbp)
	jmp	LBB174_5
LBB174_3:
	ud2
LBB174_4:
	movq	-8(%rbp), %rax
	movq	%rax, -24(%rbp)
LBB174_5:
	movq	-24(%rbp), %rax
	addq	$48, %rsp
	popq	%rbp
	retq
	.cfi_endproc

	.p2align	4, 0x90
__ZN4core3num23_$LT$impl$u20$usize$GT$15is_power_of_two17he5135d021b8d70a2E:
	.cfi_startproc
	pushq	%rbp
	.cfi_def_cfa_offset 16
	.cfi_offset %rbp, -16
	movq	%rsp, %rbp
	.cfi_def_cfa_register %rbp
	subq	$32, %rsp
	movl	$1, %eax
	movl	%eax, %esi
	movq	%rdi, -16(%rbp)
	callq	__ZN4core3num23_$LT$impl$u20$usize$GT$12wrapping_sub17h678b23997a3005c9E
	movq	%rax, -24(%rbp)
	jmp	LBB175_5
LBB175_1:
	movb	$1, -1(%rbp)
	jmp	LBB175_4
LBB175_2:
	movb	$0, -1(%rbp)
	jmp	LBB175_4
LBB175_3:
	movq	-16(%rbp), %rax
	cmpq	$0, %rax
	sete	%cl
	xorb	$-1, %cl
	testb	$1, %cl
	jne	LBB175_1
	jmp	LBB175_2
LBB175_4:
	movb	-1(%rbp), %al
	andb	$1, %al
	movzbl	%al, %eax
	addq	$32, %rsp
	popq	%rbp
	retq
LBB175_5:
	movq	-24(%rbp), %rax
	movq	-16(%rbp), %rcx
	andq	%rcx, %rax
	cmpq	$0, %rax
	je	LBB175_3
	jmp	LBB175_2
	.cfi_endproc

	.p2align	4, 0x90
__ZN4core3num23_$LT$impl$u20$usize$GT$15overflowing_add17h98bec1c06b11aa0eE:
	.cfi_startproc
	pushq	%rbp
	.cfi_def_cfa_offset 16
	.cfi_offset %rbp, -16
	movq	%rsp, %rbp
	.cfi_def_cfa_register %rbp
	subq	$48, %rsp
	addq	%rsi, %rdi
	setb	%al
	andb	$1, %al
	movq	%rdi, -16(%rbp)
	movb	%al, -8(%rbp)
	movq	-16(%rbp), %rsi
	movb	-8(%rbp), %al
	movq	%rsi, -40(%rbp)
	movb	%al, -41(%rbp)
	movq	-40(%rbp), %rax
	movq	%rax, -32(%rbp)
	movb	-41(%rbp), %cl
	andb	$1, %cl
	movb	%cl, -24(%rbp)
	movq	-32(%rbp), %rax
	movb	-24(%rbp), %dl
	addq	$48, %rsp
	popq	%rbp
	retq
	.cfi_endproc

	.p2align	4, 0x90
__ZN4core3num23_$LT$impl$u20$usize$GT$15overflowing_mul17hd5c8aae58e22950dE:
	.cfi_startproc
	pushq	%rbp
	.cfi_def_cfa_offset 16
	.cfi_offset %rbp, -16
	movq	%rsp, %rbp
	.cfi_def_cfa_register %rbp
	subq	$48, %rsp
	movq	%rdi, %rax
	mulq	%rsi
	seto	%cl
	andb	$1, %cl
	movq	%rax, -16(%rbp)
	movb	%cl, -8(%rbp)
	movq	-16(%rbp), %rax
	movb	-8(%rbp), %cl
	movq	%rax, -40(%rbp)
	movb	%cl, -41(%rbp)
	movq	-40(%rbp), %rax
	movq	%rax, -32(%rbp)
	movb	-41(%rbp), %cl
	andb	$1, %cl
	movb	%cl, -24(%rbp)
	movq	-32(%rbp), %rax
	movb	-24(%rbp), %dl
	addq	$48, %rsp
	popq	%rbp
	retq
	.cfi_endproc

	.p2align	4, 0x90
__ZN4core3num23_$LT$impl$u20$usize$GT$9max_value17h12b4629b03b8cfd4E:
	.cfi_startproc
	pushq	%rbp
	.cfi_def_cfa_offset 16
	.cfi_offset %rbp, -16
	movq	%rsp, %rbp
	.cfi_def_cfa_register %rbp
	movq	$-1, %rax
	popq	%rbp
	retq
	.cfi_endproc

	.p2align	4, 0x90
__ZN4core3num63_$LT$impl$u20$core..convert..From$LT$u8$GT$$u20$for$u20$u32$GT$4from17h0c8bad535c6e0d23E:
	.cfi_startproc
	pushq	%rbp
	.cfi_def_cfa_offset 16
	.cfi_offset %rbp, -16
	movq	%rsp, %rbp
	.cfi_def_cfa_register %rbp
	movb	%dil, %al
	movzbl	%al, %eax
	popq	%rbp
	retq
	.cfi_endproc

	.p2align	4, 0x90
__ZN4core3num67_$LT$impl$u20$core..convert..TryFrom$LT$u64$GT$$u20$for$u20$u32$GT$8try_from17h8f50ac6ffa83dc0bE:
	.cfi_startproc
	pushq	%rbp
	.cfi_def_cfa_offset 16
	.cfi_offset %rbp, -16
	movq	%rsp, %rbp
	.cfi_def_cfa_register %rbp
	subq	$48, %rsp
	movq	%rdi, -32(%rbp)
	callq	__ZN4core3num21_$LT$impl$u20$u32$GT$9max_value17h6db3e117f89ed9acE
	movl	%eax, -36(%rbp)
	movl	-36(%rbp), %eax
	movl	%eax, %ecx
	movl	%ecx, %edx
	movq	-32(%rbp), %rsi
	cmpq	%rdx, %rsi
	jbe	LBB180_3
	movl	$1, -24(%rbp)
	jmp	LBB180_4
LBB180_3:
	movq	-32(%rbp), %rax
	movl	%eax, %ecx
	movl	%ecx, -20(%rbp)
	movl	$0, -24(%rbp)
LBB180_4:
	movl	-24(%rbp), %eax
	movl	-20(%rbp), %edx
	addq	$48, %rsp
	popq	%rbp
	retq
	.cfi_endproc

	.section	__TEXT,__literal4,4byte_literals
	.p2align	2
LCPI181_0:
	.long	2139095040
	.section	__TEXT,__text,regular,pure_instructions
	.p2align	4, 0x90
__ZN4core3num7dec2flt13trivial_cases17hb57c6e8265a6d72dE:
	.cfi_startproc
	pushq	%rbp
	.cfi_def_cfa_offset 16
	.cfi_offset %rbp, -16
	movq	%rsp, %rbp
	.cfi_def_cfa_register %rbp
	subq	$64, %rsp
	movq	(%rdi), %rax
	movq	8(%rdi), %rsi
	movq	%rdi, -24(%rbp)
	movq	%rax, %rdi
	callq	__ZN4core5slice29_$LT$impl$u20$$u5b$T$u5d$$GT$8is_empty17h5658e79520a9f345E
	movb	%al, -25(%rbp)
	jmp	LBB181_5
LBB181_1:
	movb	$1, -1(%rbp)
	jmp	LBB181_4
LBB181_2:
	movb	$0, -1(%rbp)
	jmp	LBB181_4
LBB181_3:
	movq	-24(%rbp), %rax
	movq	16(%rax), %rdi
	movq	24(%rax), %rsi
	callq	__ZN4core5slice29_$LT$impl$u20$$u5b$T$u5d$$GT$8is_empty17h5658e79520a9f345E
	movb	%al, -26(%rbp)
	jmp	LBB181_6
LBB181_4:
	testb	$1, -1(%rbp)
	jne	LBB181_7
	jmp	LBB181_8
LBB181_5:
	movb	-25(%rbp), %al
	testb	$1, %al
	jne	LBB181_3
	jmp	LBB181_2
LBB181_6:
	movb	-26(%rbp), %al
	testb	$1, %al
	jne	LBB181_1
	jmp	LBB181_2
LBB181_7:
	xorps	%xmm0, %xmm0
	movss	%xmm0, -12(%rbp)
	movl	$1, -16(%rbp)
	jmp	LBB181_9
LBB181_8:
	movq	-24(%rbp), %rax
	movq	32(%rax), %rcx
	movq	(%rax), %rdi
	movq	8(%rax), %rsi
	movq	%rcx, -40(%rbp)
	callq	__ZN4core5slice29_$LT$impl$u20$$u5b$T$u5d$$GT$3len17h24a66b66aa57f6d3E
	movq	%rax, -48(%rbp)
	jmp	LBB181_10
LBB181_9:
	movl	-16(%rbp), %eax
	movss	-12(%rbp), %xmm0
	addq	$64, %rsp
	popq	%rbp
	retq
LBB181_10:
	movq	-40(%rbp), %rax
	movq	-48(%rbp), %rcx
	addq	%rcx, %rax
	cmpq	$40, %rax
	movq	%rax, -56(%rbp)
	jle	LBB181_12
	movss	LCPI181_0(%rip), %xmm0
	movss	%xmm0, -12(%rbp)
	movl	$1, -16(%rbp)
	jmp	LBB181_13
LBB181_12:
	movq	-56(%rbp), %rax
	cmpq	$-48, %rax
	jl	LBB181_14
	jmp	LBB181_15
LBB181_13:
	jmp	LBB181_9
LBB181_14:
	xorps	%xmm0, %xmm0
	movss	%xmm0, -12(%rbp)
	movl	$1, -16(%rbp)
	jmp	LBB181_13
LBB181_15:
	movl	$0, -16(%rbp)
	jmp	LBB181_9
	.cfi_endproc

	.p2align	4, 0x90
__ZN4core3num7dec2flt3num18from_str_unchecked17h5649b00a13964ec7E:
Lfunc_begin27:
	.cfi_startproc
	.cfi_personality 155, _rust_eh_personality
	.cfi_lsda 16, Lexception27
	pushq	%rbp
	.cfi_def_cfa_offset 16
	.cfi_offset %rbp, -16
	movq	%rsp, %rbp
	.cfi_def_cfa_register %rbp
	subq	$208, %rsp
	movl	$40, %eax
	movl	%eax, %edx
	movq	$0, -160(%rbp)
	leaq	-104(%rbp), %rcx
	movq	%rcx, %rsi
	movq	%rdi, -168(%rbp)
	movq	%rsi, %rdi
	movq	-168(%rbp), %rsi
	movq	%rcx, -176(%rbp)
	callq	_memcpy
	leaq	-144(%rbp), %rdi
	movq	-176(%rbp), %rsi
	callq	__ZN54_$LT$I$u20$as$u20$core..iter..traits..IntoIterator$GT$9into_iter17he1c502163e9b5858E
	jmp	LBB182_2
LBB182_1:
	movq	-16(%rbp), %rdi
	callq	__Unwind_Resume
	ud2
LBB182_2:
	movl	$40, %eax
	movl	%eax, %edx
	leaq	-144(%rbp), %rcx
	leaq	-64(%rbp), %rsi
	movq	%rsi, %rdi
	movq	%rcx, %rsi
	callq	_memcpy
LBB182_3:
Ltmp240:
	leaq	-64(%rbp), %rdi
	callq	__ZN86_$LT$core..iter..Chain$LT$A$C$$u20$B$GT$$u20$as$u20$core..iter..iterator..Iterator$GT$4next17hf4b28c33deb51e9aE
Ltmp241:
	movq	%rax, -184(%rbp)
	jmp	LBB182_4
LBB182_4:
	movq	-184(%rbp), %rax
	movq	%rax, -24(%rbp)
	movq	-24(%rbp), %rcx
	testq	%rcx, %rcx
	setne	%dl
	movzbl	%dl, %esi
	movl	%esi, %ecx
	movq	%rcx, -192(%rbp)
	je	LBB182_6
	jmp	LBB182_11
LBB182_11:
	movq	-192(%rbp), %rax
	subq	$1, %rax
	movq	%rax, -200(%rbp)
	je	LBB182_8
	jmp	LBB182_7
LBB182_5:
	jmp	LBB182_1
LBB182_6:
	jmp	LBB182_9
LBB182_7:
	ud2
LBB182_8:
	movq	-24(%rbp), %rax
	movb	(%rax), %cl
	imulq	$10, -160(%rbp), %rax
	subb	$48, %cl
	movzbl	%cl, %edx
	movl	%edx, %esi
	addq	%rsi, %rax
	movq	%rax, -160(%rbp)
	jmp	LBB182_3
LBB182_9:
	movq	-160(%rbp), %rax
	addq	$208, %rsp
	popq	%rbp
	retq
LBB182_10:
Ltmp242:
	movl	%edx, %ecx
	movq	%rax, -16(%rbp)
	movl	%ecx, -8(%rbp)
	jmp	LBB182_5
Lfunc_end27:
	.cfi_endproc
	.section	__TEXT,__gcc_except_tab
	.p2align	2
GCC_except_table182:
Lexception27:
	.byte	255
	.byte	255
	.byte	1
	.uleb128 Lcst_end27-Lcst_begin27
Lcst_begin27:
	.uleb128 Lfunc_begin27-Lfunc_begin27
	.uleb128 Ltmp240-Lfunc_begin27
	.byte	0
	.byte	0
	.uleb128 Ltmp240-Lfunc_begin27
	.uleb128 Ltmp241-Ltmp240
	.uleb128 Ltmp242-Lfunc_begin27
	.byte	0
Lcst_end27:
	.p2align	2

	.section	__TEXT,__text,regular,pure_instructions
	.p2align	4, 0x90
__ZN4core3num7dec2flt52_$LT$impl$u20$core..str..FromStr$u20$for$u20$f32$GT$8from_str17hc684196ec8aaf255E:
	.cfi_startproc
	pushq	%rbp
	.cfi_def_cfa_offset 16
	.cfi_offset %rbp, -16
	movq	%rsp, %rbp
	.cfi_def_cfa_register %rbp
	subq	$16, %rsp
	callq	__ZN4core3num7dec2flt7dec2flt17h8c223b0806e76db4E
	movq	%rax, -8(%rbp)
	movq	-8(%rbp), %rax
	movq	%rax, -16(%rbp)
	movq	-16(%rbp), %rax
	addq	$16, %rsp
	popq	%rbp
	retq
	.cfi_endproc

	.section	__TEXT,__literal4,4byte_literals
	.p2align	2
LCPI184_0:
	.long	2139095040
	.section	__TEXT,__text,regular,pure_instructions
	.p2align	4, 0x90
__ZN4core3num7dec2flt5rawfp10next_float17hb554f2e3acd9e989E:
Lfunc_begin28:
	.cfi_startproc
	.cfi_personality 155, _rust_eh_personality
	.cfi_lsda 16, Lexception28
	pushq	%rbp
	.cfi_def_cfa_offset 16
	.cfi_offset %rbp, -16
	movq	%rsp, %rbp
	.cfi_def_cfa_register %rbp
	subq	$80, %rsp
	movb	$0, -17(%rbp)
	movss	%xmm0, -28(%rbp)
	callq	__ZN59_$LT$f32$u20$as$u20$core..num..dec2flt..rawfp..RawFloat$GT$8classify17h0c4cc1fc9d425133E
	movb	%al, -18(%rbp)
	jmp	LBB184_2
LBB184_1:
	movq	-16(%rbp), %rdi
	callq	__Unwind_Resume
	ud2
LBB184_2:
	movzbl	-18(%rbp), %eax
	movl	%eax, %ecx
	testq	%rcx, %rcx
	movq	%rcx, -40(%rbp)
	je	LBB184_3
	jmp	LBB184_15
LBB184_15:
	movq	-40(%rbp), %rax
	subq	$1, %rax
	movq	%rax, -48(%rbp)
	je	LBB184_4
	jmp	LBB184_16
LBB184_16:
	movq	-40(%rbp), %rax
	addq	$-2, %rax
	subq	$3, %rax
	movq	%rax, -56(%rbp)
	jb	LBB184_5
	jmp	LBB184_6
LBB184_3:
	leaq	l___unnamed_10(%rip), %rdi
	callq	__ZN4core9panicking5panic17h9e14359664dfef5fE
LBB184_4:
	movss	LCPI184_0(%rip), %xmm0
	movss	%xmm0, -24(%rbp)
	jmp	LBB184_7
LBB184_5:
	movb	$1, -17(%rbp)
	movss	-28(%rbp), %xmm0
	callq	__ZN59_$LT$f32$u20$as$u20$core..num..dec2flt..rawfp..RawFloat$GT$7to_bits17hcbfbb1e87277fd34E
	movl	%eax, -60(%rbp)
	jmp	LBB184_8
LBB184_6:
	ud2
LBB184_7:
	movss	-24(%rbp), %xmm0
	addq	$80, %rsp
	popq	%rbp
	retq
LBB184_8:
Ltmp243:
	movl	$1, %edi
	callq	__ZN4core3num63_$LT$impl$u20$core..convert..From$LT$u8$GT$$u20$for$u20$u32$GT$4from17h0c8bad535c6e0d23E
Ltmp244:
	movl	%eax, -64(%rbp)
	jmp	LBB184_9
LBB184_9:
	movb	$0, -17(%rbp)
Ltmp245:
	movl	-60(%rbp), %edi
	movl	-64(%rbp), %esi
	callq	__ZN45_$LT$u32$u20$as$u20$core..ops..arith..Add$GT$3add17hd032a3ab38a6c064E
Ltmp246:
	movl	%eax, -68(%rbp)
	jmp	LBB184_10
LBB184_10:
	movb	$0, -17(%rbp)
	movl	-68(%rbp), %edi
	callq	__ZN59_$LT$f32$u20$as$u20$core..num..dec2flt..rawfp..RawFloat$GT$9from_bits17hb3daa537fbb53576E
	movss	%xmm0, -24(%rbp)
	jmp	LBB184_7
LBB184_12:
	movb	$0, -17(%rbp)
	jmp	LBB184_1
LBB184_13:
	testb	$1, -17(%rbp)
	jne	LBB184_12
	jmp	LBB184_1
LBB184_14:
Ltmp247:
	movl	%edx, %ecx
	movq	%rax, -16(%rbp)
	movl	%ecx, -8(%rbp)
	jmp	LBB184_13
Lfunc_end28:
	.cfi_endproc
	.section	__TEXT,__gcc_except_tab
	.p2align	2
GCC_except_table184:
Lexception28:
	.byte	255
	.byte	255
	.byte	1
	.uleb128 Lcst_end28-Lcst_begin28
Lcst_begin28:
	.uleb128 Lfunc_begin28-Lfunc_begin28
	.uleb128 Ltmp243-Lfunc_begin28
	.byte	0
	.byte	0
	.uleb128 Ltmp243-Lfunc_begin28
	.uleb128 Ltmp246-Ltmp243
	.uleb128 Ltmp247-Lfunc_begin28
	.byte	0
	.uleb128 Ltmp246-Lfunc_begin28
	.uleb128 Lfunc_end28-Ltmp246
	.byte	0
	.byte	0
Lcst_end28:
	.p2align	2

	.section	__TEXT,__text,regular,pure_instructions
	.p2align	4, 0x90
__ZN4core3num7dec2flt5rawfp10prev_float17h526100c950e3b518E:
	.cfi_startproc
	pushq	%rbp
	.cfi_def_cfa_offset 16
	.cfi_offset %rbp, -16
	movq	%rsp, %rbp
	.cfi_def_cfa_register %rbp
	subq	$80, %rsp
	movss	%xmm0, -12(%rbp)
	callq	__ZN59_$LT$f32$u20$as$u20$core..num..dec2flt..rawfp..RawFloat$GT$8classify17h0c4cc1fc9d425133E
	movb	%al, -1(%rbp)
	movzbl	-1(%rbp), %eax
	movl	%eax, %ecx
	movq	%rcx, %rdx
	subq	$4, %rdx
	movq	%rcx, -24(%rbp)
	movq	%rdx, -32(%rbp)
	ja	LBB185_7
	leaq	LJTI185_0(%rip), %rax
	movq	-24(%rbp), %rcx
	movslq	(%rax,%rcx,4), %rdx
	addq	%rax, %rdx
	jmpq	*%rdx
LBB185_2:
	leaq	l___unnamed_11(%rip), %rdi
	callq	__ZN4core9panicking5panic17h9e14359664dfef5fE
LBB185_3:
	leaq	l___unnamed_12(%rip), %rdi
	callq	__ZN4core9panicking5panic17h9e14359664dfef5fE
LBB185_4:
	leaq	l___unnamed_13(%rip), %rdi
	callq	__ZN4core9panicking5panic17h9e14359664dfef5fE
LBB185_5:
	leaq	l___unnamed_14(%rip), %rdi
	callq	__ZN4core9panicking5panic17h9e14359664dfef5fE
LBB185_6:
	movss	-12(%rbp), %xmm0
	callq	__ZN59_$LT$f32$u20$as$u20$core..num..dec2flt..rawfp..RawFloat$GT$6unpack17h5031bc4d3f5adec3E
	movq	%rax, -40(%rbp)
	movw	%dx, -42(%rbp)
	jmp	LBB185_8
LBB185_7:
	ud2
LBB185_8:
	movq	-40(%rbp), %rax
	cmpq	$8388608, %rax
	jne	LBB185_10
	movl	$16777215, %eax
	movl	%eax, %edi
	movw	-42(%rbp), %cx
	subw	$1, %cx
	movzwl	%cx, %esi
	callq	__ZN4core3num7dec2flt5rawfp8Unpacked3new17h03b317b5ba4de418E
	movq	%rax, -56(%rbp)
	movw	%dx, -58(%rbp)
	jmp	LBB185_11
LBB185_10:
	movq	-40(%rbp), %rax
	subq	$1, %rax
	movq	%rax, %rdi
	movw	-42(%rbp), %cx
	movzwl	%cx, %esi
	callq	__ZN4core3num7dec2flt5rawfp8Unpacked3new17h03b317b5ba4de418E
	movq	%rax, -72(%rbp)
	movw	%dx, -74(%rbp)
	jmp	LBB185_13
LBB185_11:
	movq	-56(%rbp), %rdi
	movw	-58(%rbp), %ax
	movzwl	%ax, %esi
	callq	__ZN4core3num7dec2flt5rawfp13encode_normal17h9037f5fae495f3b4E
	movss	%xmm0, -8(%rbp)
	jmp	LBB185_15
LBB185_13:
	movq	-72(%rbp), %rdi
	movw	-74(%rbp), %ax
	movzwl	%ax, %esi
	callq	__ZN4core3num7dec2flt5rawfp13encode_normal17h9037f5fae495f3b4E
	movss	%xmm0, -8(%rbp)
	jmp	LBB185_15
LBB185_15:
	movss	-8(%rbp), %xmm0
	addq	$80, %rsp
	popq	%rbp
	retq
	.cfi_endproc
	.p2align	2, 0x90
	.data_region jt32
.set L185_0_set_3, LBB185_3-LJTI185_0
.set L185_0_set_2, LBB185_2-LJTI185_0
.set L185_0_set_5, LBB185_5-LJTI185_0
.set L185_0_set_4, LBB185_4-LJTI185_0
.set L185_0_set_6, LBB185_6-LJTI185_0
LJTI185_0:
	.long	L185_0_set_3
	.long	L185_0_set_2
	.long	L185_0_set_5
	.long	L185_0_set_4
	.long	L185_0_set_6
	.end_data_region

	.p2align	4, 0x90
__ZN4core3num7dec2flt5rawfp11fp_to_float17h3b5317144c556a1eE:
	.cfi_startproc
	pushq	%rbp
	.cfi_def_cfa_offset 16
	.cfi_offset %rbp, -16
	movq	%rsp, %rbp
	.cfi_def_cfa_register %rbp
	subq	$272, %rsp
	movw	%si, %ax
	movq	%rdi, -168(%rbp)
	movw	%ax, -160(%rbp)
	leaq	-168(%rbp), %rdi
	callq	__ZN4core3num9diy_float2Fp9normalize17h9d8f16a365a4d682E
	movq	%rax, -176(%rbp)
	movw	%dx, -178(%rbp)
	movw	-178(%rbp), %ax
	addw	$63, %ax
	movw	%ax, -146(%rbp)
	cmpw	$127, -146(%rbp)
	jle	LBB186_3
	movq	__ZN4core3fmt3num52_$LT$impl$u20$core..fmt..Display$u20$for$u20$i16$GT$3fmt17h13b2adc1dfbb374cE@GOTPCREL(%rip), %rsi
	leaq	-146(%rbp), %rax
	movq	%rax, -80(%rbp)
	movq	-80(%rbp), %rdi
	callq	__ZN4core3fmt10ArgumentV13new17h3b2cc3e286926dffE
	movq	%rax, -192(%rbp)
	movq	%rdx, -200(%rbp)
	jmp	LBB186_4
LBB186_3:
	cmpw	$-126, -146(%rbp)
	jg	LBB186_6
	jmp	LBB186_7
LBB186_4:
	leaq	l___unnamed_15(%rip), %rax
	movl	$2, %ecx
	movl	%ecx, %edx
	movl	$1, %ecx
	movl	%ecx, %r8d
	leaq	l___unnamed_16(%rip), %rsi
	movq	-192(%rbp), %rdi
	movq	%rdi, -96(%rbp)
	movq	-200(%rbp), %r9
	movq	%r9, -88(%rbp)
	leaq	-96(%rbp), %r10
	leaq	-144(%rbp), %rdi
	movq	%rsi, -208(%rbp)
	movq	%rax, %rsi
	movq	%r10, %rcx
	movq	-208(%rbp), %r9
	movq	$1, (%rsp)
	callq	__ZN4core3fmt9Arguments16new_v1_formatted17h3d91bfaa38aa19a7E
	leaq	l___unnamed_17(%rip), %rsi
	leaq	-144(%rbp), %rdi
	callq	__ZN4core9panicking9panic_fmt17hc0099dc0d85edf22E
LBB186_6:
	movq	-176(%rbp), %rdi
	movw	-178(%rbp), %ax
	movzwl	%ax, %esi
	callq	__ZN4core3num7dec2flt5rawfp12round_normal17hd7dc9bbc84b74c81E
	movq	%rax, -216(%rbp)
	movw	%dx, -218(%rbp)
	jmp	LBB186_8
LBB186_7:
	movq	__ZN4core3fmt3num52_$LT$impl$u20$core..fmt..Display$u20$for$u20$i16$GT$3fmt17h13b2adc1dfbb374cE@GOTPCREL(%rip), %rsi
	leaq	-146(%rbp), %rax
	movq	%rax, -8(%rbp)
	movq	-8(%rbp), %rdi
	callq	__ZN4core3fmt10ArgumentV13new17h3b2cc3e286926dffE
	movq	%rax, -232(%rbp)
	movq	%rdx, -240(%rbp)
	jmp	LBB186_10
LBB186_8:
	movq	-216(%rbp), %rdi
	movw	-218(%rbp), %ax
	movzwl	%ax, %esi
	callq	__ZN4core3num7dec2flt5rawfp13encode_normal17h9037f5fae495f3b4E
	movss	%xmm0, -244(%rbp)
	movss	-244(%rbp), %xmm0
	addq	$272, %rsp
	popq	%rbp
	retq
LBB186_10:
	leaq	l___unnamed_18(%rip), %rax
	movl	$2, %ecx
	movl	%ecx, %edx
	movl	$1, %ecx
	movl	%ecx, %r8d
	leaq	l___unnamed_16(%rip), %rsi
	movq	-232(%rbp), %rdi
	movq	%rdi, -24(%rbp)
	movq	-240(%rbp), %r9
	movq	%r9, -16(%rbp)
	leaq	-24(%rbp), %r10
	leaq	-72(%rbp), %rdi
	movq	%rsi, -256(%rbp)
	movq	%rax, %rsi
	movq	%r10, %rcx
	movq	-256(%rbp), %r9
	movq	$1, (%rsp)
	callq	__ZN4core3fmt9Arguments16new_v1_formatted17h3d91bfaa38aa19a7E
	leaq	l___unnamed_19(%rip), %rsi
	leaq	-72(%rbp), %rdi
	callq	__ZN4core9panicking9panic_fmt17hc0099dc0d85edf22E
	.cfi_endproc

	.p2align	4, 0x90
__ZN4core3num7dec2flt5rawfp12round_normal17hd7dc9bbc84b74c81E:
	.cfi_startproc
	pushq	%rbp
	.cfi_def_cfa_offset 16
	.cfi_offset %rbp, -16
	movq	%rsp, %rbp
	.cfi_def_cfa_register %rbp
	pushq	%rbx
	subq	$280, %rsp
	.cfi_offset %rbx, -24
	movw	%si, %ax
	movq	%rdi, -200(%rbp)
	movw	%ax, -192(%rbp)
	movq	-200(%rbp), %rdi
	shrq	$40, %rdi
	movabsq	$1099511627775, %rcx
	andq	-200(%rbp), %rcx
	movq	%rdi, -168(%rbp)
	movq	%rcx, -160(%rbp)
	movq	-168(%rbp), %rcx
	movq	-160(%rbp), %rdi
	movq	%rcx, %rdx
	shlq	$40, %rdx
	orq	%rdi, %rdx
	movq	%rdx, -136(%rbp)
	leaq	-200(%rbp), %rdx
	leaq	-136(%rbp), %r8
	movq	%r8, -152(%rbp)
	movq	%rdx, -144(%rbp)
	movq	-152(%rbp), %rdx
	movq	%rdx, -128(%rbp)
	movq	-144(%rbp), %rdx
	movq	%rdx, -120(%rbp)
	movq	-128(%rbp), %rdx
	movq	(%rdx), %rdx
	movq	-120(%rbp), %r8
	cmpq	(%r8), %rdx
	sete	%r9b
	xorb	$-1, %r9b
	testb	$1, %r9b
	movq	%rcx, -208(%rbp)
	movq	%rdi, -216(%rbp)
	jne	LBB187_1
	jmp	LBB187_2
LBB187_1:
	leaq	-128(%rbp), %rax
	movq	%rax, -32(%rbp)
	leaq	-120(%rbp), %rax
	movq	%rax, -24(%rbp)
	movq	-32(%rbp), %rdi
	movq	-24(%rbp), %rax
	leaq	__ZN42_$LT$$RF$T$u20$as$u20$core..fmt..Debug$GT$3fmt17h25d182435f413de4E(%rip), %rsi
	movq	%rax, -224(%rbp)
	callq	__ZN4core3fmt10ArgumentV13new17h397dcfe25deb0ac4E
	movq	%rax, -232(%rbp)
	movq	%rdx, -240(%rbp)
	jmp	LBB187_3
LBB187_2:
	movw	-192(%rbp), %ax
	addw	$40, %ax
	movabsq	$549755813888, %rcx
	movq	-216(%rbp), %rdx
	cmpq	%rcx, %rdx
	movw	%ax, -242(%rbp)
	jb	LBB187_6
	jmp	LBB187_7
LBB187_3:
	movq	-224(%rbp), %rdi
	leaq	__ZN42_$LT$$RF$T$u20$as$u20$core..fmt..Debug$GT$3fmt17h25d182435f413de4E(%rip), %rsi
	callq	__ZN4core3fmt10ArgumentV13new17h397dcfe25deb0ac4E
	movq	%rax, -256(%rbp)
	movq	%rdx, -264(%rbp)
	leaq	l___unnamed_20(%rip), %rax
	movl	$3, %ecx
	movl	%ecx, %edx
	movl	$2, %ecx
	movl	%ecx, %r8d
	leaq	l___unnamed_21(%rip), %rsi
	movq	-232(%rbp), %rdi
	movq	%rdi, -64(%rbp)
	movq	-240(%rbp), %r9
	movq	%r9, -56(%rbp)
	movq	-256(%rbp), %r10
	movq	%r10, -48(%rbp)
	movq	-264(%rbp), %r11
	movq	%r11, -40(%rbp)
	leaq	-64(%rbp), %rbx
	leaq	-112(%rbp), %rdi
	movq	%rsi, -272(%rbp)
	movq	%rax, %rsi
	movq	%rbx, %rcx
	movq	-272(%rbp), %r9
	movq	$2, (%rsp)
	callq	__ZN4core3fmt9Arguments16new_v1_formatted17h3d91bfaa38aa19a7E
	leaq	l___unnamed_22(%rip), %rsi
	leaq	-112(%rbp), %rdi
	callq	__ZN4core9panicking9panic_fmt17hc0099dc0d85edf22E
LBB187_6:
	movw	-242(%rbp), %cx
	movw	%cx, %ax
	movq	-208(%rbp), %rdi
	movl	%eax, %esi
	callq	__ZN4core3num7dec2flt5rawfp8Unpacked3new17h03b317b5ba4de418E
	movw	%dx, -176(%rbp)
	movq	%rax, -184(%rbp)
	jmp	LBB187_8
LBB187_7:
	movabsq	$549755813888, %rax
	movq	-216(%rbp), %rcx
	cmpq	%rax, %rcx
	je	LBB187_11
	jmp	LBB187_10
LBB187_8:
	jmp	LBB187_23
LBB187_9:
	movb	$1, -9(%rbp)
	jmp	LBB187_12
LBB187_10:
	movb	$0, -9(%rbp)
	jmp	LBB187_12
LBB187_11:
	jmp	LBB187_13
LBB187_12:
	testb	$1, -9(%rbp)
	jne	LBB187_14
	jmp	LBB187_15
LBB187_13:
	movq	-208(%rbp), %rax
	andq	$1, %rax
	cmpq	$0, %rax
	je	LBB187_9
	jmp	LBB187_10
LBB187_14:
	movw	-242(%rbp), %cx
	movw	%cx, %ax
	movq	-208(%rbp), %rdi
	movl	%eax, %esi
	callq	__ZN4core3num7dec2flt5rawfp8Unpacked3new17h03b317b5ba4de418E
	movw	%dx, -176(%rbp)
	movq	%rax, -184(%rbp)
	jmp	LBB187_16
LBB187_15:
	movq	-208(%rbp), %rax
	cmpq	$16777215, %rax
	je	LBB187_17
	jmp	LBB187_18
LBB187_16:
	jmp	LBB187_22
LBB187_17:
	movw	-242(%rbp), %cx
	movw	%cx, %ax
	incl	%eax
	movl	$8388608, %edi
	movl	%eax, %esi
	callq	__ZN4core3num7dec2flt5rawfp8Unpacked3new17h03b317b5ba4de418E
	movw	%dx, -176(%rbp)
	movq	%rax, -184(%rbp)
	jmp	LBB187_19
LBB187_18:
	movq	-208(%rbp), %rax
	incq	%rax
	movw	-242(%rbp), %dx
	movw	%dx, %cx
	movq	%rax, %rdi
	movl	%ecx, %esi
	callq	__ZN4core3num7dec2flt5rawfp8Unpacked3new17h03b317b5ba4de418E
	movw	%dx, -176(%rbp)
	movq	%rax, -184(%rbp)
	jmp	LBB187_20
LBB187_19:
	jmp	LBB187_21
LBB187_20:
	jmp	LBB187_21
LBB187_21:
	jmp	LBB187_22
LBB187_22:
	jmp	LBB187_23
LBB187_23:
	movq	-184(%rbp), %rax
	movw	-176(%rbp), %dx
	addq	$280, %rsp
	popq	%rbx
	popq	%rbp
	retq
	.cfi_endproc

	.p2align	4, 0x90
__ZN4core3num7dec2flt5rawfp13encode_normal17h9037f5fae495f3b4E:
	.cfi_startproc
	pushq	%rbp
	.cfi_def_cfa_offset 16
	.cfi_offset %rbp, -16
	movq	%rsp, %rbp
	.cfi_def_cfa_register %rbp
	subq	$32, %rsp
	movw	%si, %ax
	andq	$-8388609, %rdi
	addw	$127, %ax
	addw	$23, %ax
	movswq	%ax, %rcx
	shlq	$23, %rcx
	orq	%rdi, %rcx
	movq	%rcx, %rdi
	callq	__ZN53_$LT$T$u20$as$u20$core..convert..TryInto$LT$U$GT$$GT$8try_into17h180b23120874e0a7E
	movl	%eax, -12(%rbp)
	movl	%edx, -16(%rbp)
	movl	-12(%rbp), %edi
	movl	-16(%rbp), %esi
	callq	__ZN47_$LT$core..result..Result$LT$T$C$$u20$E$GT$$GT$14unwrap_or_else17h10992ce16b4732a3E
	movl	%eax, -20(%rbp)
	movl	-20(%rbp), %edi
	callq	__ZN59_$LT$f32$u20$as$u20$core..num..dec2flt..rawfp..RawFloat$GT$9from_bits17hb3daa537fbb53576E
	movss	%xmm0, -24(%rbp)
	movss	-24(%rbp), %xmm0
	addq	$32, %rsp
	popq	%rbp
	retq
	.cfi_endproc

	.p2align	4, 0x90
__ZN4core3num7dec2flt5rawfp13encode_normal28_$u7b$$u7b$closure$u7d$$u7d$17h6427ed1b836e492aE:
Lfunc_begin29:
	.cfi_startproc
	.cfi_personality 155, _rust_eh_personality
	.cfi_lsda 16, Lexception29
	pushq	%rbp
	.cfi_def_cfa_offset 16
	.cfi_offset %rbp, -16
	movq	%rsp, %rbp
	.cfi_def_cfa_register %rbp
	subq	$16, %rsp
Ltmp248:
	leaq	l___unnamed_23(%rip), %rdi
	callq	__ZN4core9panicking5panic17h9e14359664dfef5fE
Ltmp249:
	jmp	LBB189_3
LBB189_1:
	movq	-16(%rbp), %rdi
	callq	__Unwind_Resume
	ud2
LBB189_2:
	jmp	LBB189_1
LBB189_3:
	ud2
LBB189_4:
Ltmp250:
	movl	%edx, %ecx
	movq	%rax, -16(%rbp)
	movl	%ecx, -8(%rbp)
	jmp	LBB189_2
Lfunc_end29:
	.cfi_endproc
	.section	__TEXT,__gcc_except_tab
	.p2align	2
GCC_except_table189:
Lexception29:
	.byte	255
	.byte	255
	.byte	1
	.uleb128 Lcst_end29-Lcst_begin29
Lcst_begin29:
	.uleb128 Ltmp248-Lfunc_begin29
	.uleb128 Ltmp249-Ltmp248
	.uleb128 Ltmp250-Lfunc_begin29
	.byte	0
	.uleb128 Ltmp249-Lfunc_begin29
	.uleb128 Lfunc_end29-Ltmp249
	.byte	0
	.byte	0
Lcst_end29:
	.p2align	2

	.section	__TEXT,__text,regular,pure_instructions
	.p2align	4, 0x90
__ZN4core3num7dec2flt5rawfp16encode_subnormal17h5fb14565363f870bE:
	.cfi_startproc
	pushq	%rbp
	.cfi_def_cfa_offset 16
	.cfi_offset %rbp, -16
	movq	%rsp, %rbp
	.cfi_def_cfa_register %rbp
	subq	$32, %rsp
	cmpq	$8388608, %rdi
	setb	%al
	xorb	$-1, %al
	testb	$1, %al
	movq	%rdi, -16(%rbp)
	jne	LBB190_1
	jmp	LBB190_2
LBB190_1:
	leaq	l___unnamed_24(%rip), %rdi
	callq	__ZN4core9panicking5panic17h9e14359664dfef5fE
LBB190_2:
	movq	-16(%rbp), %rdi
	callq	__ZN53_$LT$T$u20$as$u20$core..convert..TryInto$LT$U$GT$$GT$8try_into17h180b23120874e0a7E
	movl	%eax, -20(%rbp)
	movl	%edx, -24(%rbp)
	movl	-20(%rbp), %edi
	movl	-24(%rbp), %esi
	callq	__ZN47_$LT$core..result..Result$LT$T$C$$u20$E$GT$$GT$14unwrap_or_else17hce9e76ade29b44beE
	movl	%eax, -28(%rbp)
	movl	-28(%rbp), %edi
	callq	__ZN59_$LT$f32$u20$as$u20$core..num..dec2flt..rawfp..RawFloat$GT$9from_bits17hb3daa537fbb53576E
	movss	%xmm0, -32(%rbp)
	movss	-32(%rbp), %xmm0
	addq	$32, %rsp
	popq	%rbp
	retq
	.cfi_endproc

	.p2align	4, 0x90
__ZN4core3num7dec2flt5rawfp16encode_subnormal28_$u7b$$u7b$closure$u7d$$u7d$17h83466f9b79d41236E:
Lfunc_begin30:
	.cfi_startproc
	.cfi_personality 155, _rust_eh_personality
	.cfi_lsda 16, Lexception30
	pushq	%rbp
	.cfi_def_cfa_offset 16
	.cfi_offset %rbp, -16
	movq	%rsp, %rbp
	.cfi_def_cfa_register %rbp
	subq	$16, %rsp
Ltmp251:
	leaq	l___unnamed_25(%rip), %rdi
	callq	__ZN4core9panicking5panic17h9e14359664dfef5fE
Ltmp252:
	jmp	LBB191_3
LBB191_1:
	movq	-16(%rbp), %rdi
	callq	__Unwind_Resume
	ud2
LBB191_2:
	jmp	LBB191_1
LBB191_3:
	ud2
LBB191_4:
Ltmp253:
	movl	%edx, %ecx
	movq	%rax, -16(%rbp)
	movl	%ecx, -8(%rbp)
	jmp	LBB191_2
Lfunc_end30:
	.cfi_endproc
	.section	__TEXT,__gcc_except_tab
	.p2align	2
GCC_except_table191:
Lexception30:
	.byte	255
	.byte	255
	.byte	1
	.uleb128 Lcst_end30-Lcst_begin30
Lcst_begin30:
	.uleb128 Ltmp251-Lfunc_begin30
	.uleb128 Ltmp252-Ltmp251
	.uleb128 Ltmp253-Lfunc_begin30
	.byte	0
	.uleb128 Ltmp252-Lfunc_begin30
	.uleb128 Lfunc_end30-Ltmp252
	.byte	0
	.byte	0
Lcst_end30:
	.p2align	2

	.section	__TEXT,__text,regular,pure_instructions
	.p2align	4, 0x90
__ZN4core3num7dec2flt7convert17h9e91b595e8b8a8daE:
	.cfi_startproc
	pushq	%rbp
	.cfi_def_cfa_offset 16
	.cfi_offset %rbp, -16
	movq	%rsp, %rbp
	.cfi_def_cfa_register %rbp
	subq	$464, %rsp
	movq	(%rdi), %rax
	movq	8(%rdi), %rsi
	movq	%rdi, -368(%rbp)
	movq	%rax, %rdi
	callq	__ZN4core5slice29_$LT$impl$u20$$u5b$T$u5d$$GT$4iter17h0e3b8706266cd450E
	leaq	l___unnamed_26(%rip), %rsi
	leaq	-160(%rbp), %rdi
	movq	%rsi, -376(%rbp)
	movq	%rax, %rsi
	movq	-376(%rbp), %rcx
	callq	__ZN4core4iter8iterator8Iterator10take_while17h2c2ee38e2069f535E
	leaq	-160(%rbp), %rdi
	callq	__ZN4core4iter8iterator8Iterator5count17hee2f508b208eaa6aE
	movq	-368(%rbp), %rcx
	movq	(%rcx), %rdi
	movq	8(%rcx), %rsi
	movq	%rax, -128(%rbp)
	movq	-128(%rbp), %rdx
	callq	__ZN4core5slice74_$LT$impl$u20$core..ops..index..Index$LT$I$GT$$u20$for$u20$$u5b$T$u5d$$GT$5index17hd77b7ba6bc7870f5E
	movq	-368(%rbp), %rcx
	movq	%rax, (%rcx)
	movq	%rdx, 8(%rcx)
	movq	16(%rcx), %rdi
	movq	24(%rcx), %rsi
	callq	__ZN4core5slice29_$LT$impl$u20$$u5b$T$u5d$$GT$4iter17h0e3b8706266cd450E
	movq	%rax, %rdi
	movq	%rdx, %rsi
	callq	__ZN4core4iter8iterator8Iterator3rev17hb0b94d2aa398c75bE
	leaq	l___unnamed_26(%rip), %rcx
	leaq	-120(%rbp), %rdi
	movq	%rax, %rsi
	callq	__ZN4core4iter8iterator8Iterator10take_while17h617b705781941008E
	leaq	-120(%rbp), %rdi
	callq	__ZN4core4iter8iterator8Iterator5count17h826308d7f3e0a439E
	movq	-368(%rbp), %rcx
	movq	16(%rcx), %rdi
	movq	24(%rcx), %rsi
	movq	%rax, -384(%rbp)
	callq	__ZN4core5slice29_$LT$impl$u20$$u5b$T$u5d$$GT$3len17h24a66b66aa57f6d3E
	movq	-384(%rbp), %rcx
	subq	%rcx, %rax
	movq	-368(%rbp), %rcx
	movq	16(%rcx), %rdi
	movq	24(%rcx), %rsi
	movq	%rax, -88(%rbp)
	movq	-88(%rbp), %rdx
	callq	__ZN4core5slice74_$LT$impl$u20$core..ops..index..Index$LT$I$GT$$u20$for$u20$$u5b$T$u5d$$GT$5index17h314b84ff520bac23E
	movq	-368(%rbp), %rcx
	movq	%rax, 16(%rcx)
	movq	%rdx, 24(%rcx)
	movq	(%rcx), %rdi
	movq	8(%rcx), %rsi
	callq	__ZN4core5slice29_$LT$impl$u20$$u5b$T$u5d$$GT$8is_empty17h5658e79520a9f345E
	testb	$1, %al
	jne	LBB192_1
	jmp	LBB192_2
LBB192_1:
	movq	-368(%rbp), %rax
	movq	16(%rax), %rdi
	movq	24(%rax), %rsi
	callq	__ZN4core5slice29_$LT$impl$u20$$u5b$T$u5d$$GT$4iter17h0e3b8706266cd450E
	leaq	l___unnamed_26(%rip), %rsi
	leaq	-80(%rbp), %rdi
	movq	%rsi, -392(%rbp)
	movq	%rax, %rsi
	movq	-392(%rbp), %rcx
	callq	__ZN4core4iter8iterator8Iterator10take_while17h2c2ee38e2069f535E
	leaq	-80(%rbp), %rdi
	callq	__ZN4core4iter8iterator8Iterator5count17hee2f508b208eaa6aE
	movq	-368(%rbp), %rcx
	movq	16(%rcx), %rdi
	movq	24(%rcx), %rsi
	movq	%rax, -48(%rbp)
	movq	-48(%rbp), %rdx
	movq	%rax, -400(%rbp)
	callq	__ZN4core5slice74_$LT$impl$u20$core..ops..index..Index$LT$I$GT$$u20$for$u20$$u5b$T$u5d$$GT$5index17hd77b7ba6bc7870f5E
	movq	-368(%rbp), %rcx
	movq	%rax, 16(%rcx)
	movq	%rdx, 24(%rcx)
	movq	32(%rcx), %rax
	movq	-400(%rbp), %rdx
	subq	%rdx, %rax
	movq	%rax, 32(%rcx)
	jmp	LBB192_5
LBB192_2:
	movq	-368(%rbp), %rax
	movq	16(%rax), %rdi
	movq	24(%rax), %rsi
	callq	__ZN4core5slice29_$LT$impl$u20$$u5b$T$u5d$$GT$8is_empty17h5658e79520a9f345E
	testb	$1, %al
	jne	LBB192_3
	jmp	LBB192_4
LBB192_3:
	movq	-368(%rbp), %rax
	movq	(%rax), %rdi
	movq	8(%rax), %rsi
	callq	__ZN4core5slice29_$LT$impl$u20$$u5b$T$u5d$$GT$4iter17h0e3b8706266cd450E
	movq	%rax, %rdi
	movq	%rdx, %rsi
	callq	__ZN4core4iter8iterator8Iterator3rev17hb0b94d2aa398c75bE
	leaq	l___unnamed_26(%rip), %rsi
	leaq	-40(%rbp), %rdi
	movq	%rsi, -408(%rbp)
	movq	%rax, %rsi
	movq	-408(%rbp), %rcx
	callq	__ZN4core4iter8iterator8Iterator10take_while17h617b705781941008E
	leaq	-40(%rbp), %rdi
	callq	__ZN4core4iter8iterator8Iterator5count17h826308d7f3e0a439E
	movq	-368(%rbp), %rcx
	movq	(%rcx), %rdi
	movq	8(%rcx), %rsi
	movq	%rax, -416(%rbp)
	callq	__ZN4core5slice29_$LT$impl$u20$$u5b$T$u5d$$GT$3len17h24a66b66aa57f6d3E
	movq	-416(%rbp), %rcx
	subq	%rcx, %rax
	movq	-368(%rbp), %rdx
	movq	(%rdx), %rdi
	movq	8(%rdx), %rsi
	movq	%rax, -8(%rbp)
	movq	-8(%rbp), %rdx
	callq	__ZN4core5slice74_$LT$impl$u20$core..ops..index..Index$LT$I$GT$$u20$for$u20$$u5b$T$u5d$$GT$5index17h314b84ff520bac23E
	movq	-368(%rbp), %rcx
	movq	%rax, (%rcx)
	movq	%rdx, 8(%rcx)
	movq	-416(%rbp), %rax
	addq	32(%rcx), %rax
	movq	%rax, 32(%rcx)
LBB192_4:
	jmp	LBB192_5
LBB192_5:
	jmp	LBB192_6
LBB192_6:
	movq	-368(%rbp), %rdi
	callq	__ZN4core3num7dec2flt13trivial_cases17hb57c6e8265a6d72dE
	movss	%xmm0, -348(%rbp)
	movl	%eax, -352(%rbp)
	movl	-352(%rbp), %eax
	movl	%eax, %ecx
	cmpq	$1, %rcx
	je	LBB192_9
	movq	-368(%rbp), %rax
	movq	32(%rax), %rcx
	movq	16(%rax), %rdi
	movq	24(%rax), %rsi
	movq	%rcx, -424(%rbp)
	callq	__ZN4core5slice29_$LT$impl$u20$$u5b$T$u5d$$GT$3len17h24a66b66aa57f6d3E
	movq	%rax, -432(%rbp)
	jmp	LBB192_11
LBB192_9:
	movss	-348(%rbp), %xmm0
	movss	%xmm0, -356(%rbp)
	movb	$0, -360(%rbp)
LBB192_10:
	movq	-360(%rbp), %rax
	addq	$464, %rsp
	popq	%rbp
	retq
LBB192_11:
	movq	-424(%rbp), %rax
	movq	-432(%rbp), %rcx
	subq	%rcx, %rax
	movq	-368(%rbp), %rdx
	movq	(%rdx), %rdi
	movq	8(%rdx), %rsi
	movq	16(%rdx), %rdx
	movq	-368(%rbp), %r8
	movq	24(%r8), %rcx
	movq	%rax, %r8
	movq	%rax, -440(%rbp)
	callq	__ZN4core3num7dec2flt9algorithm9fast_path17h38e2eaece3c038adE
	movss	%xmm0, -340(%rbp)
	movl	%eax, -344(%rbp)
	movl	-344(%rbp), %eax
	movl	%eax, %ecx
	cmpq	$1, %rcx
	je	LBB192_14
	movq	-368(%rbp), %rdi
	movq	-440(%rbp), %rsi
	callq	__ZN4core3num7dec2flt25bound_intermediate_digits17h3d8ad1ace50c089bE
	movq	%rax, -448(%rbp)
	jmp	LBB192_16
LBB192_14:
	movss	-340(%rbp), %xmm0
	movss	%xmm0, -356(%rbp)
	movb	$0, -360(%rbp)
LBB192_15:
	jmp	LBB192_10
LBB192_16:
	movq	-448(%rbp), %rax
	cmpq	$375, %rax
	jbe	LBB192_18
	callq	__ZN4core3num7dec2flt11pfe_invalid17h9aa9a1726b65d08bE
	movb	%al, -449(%rbp)
	jmp	LBB192_19
LBB192_18:
	movq	-368(%rbp), %rax
	movq	(%rax), %rsi
	movq	8(%rax), %rdx
	movq	16(%rax), %rcx
	movq	24(%rax), %r8
	leaq	-336(%rbp), %rdi
	callq	__ZN4core3num7dec2flt3num13digits_to_big17h45664db795f5813fE
	jmp	LBB192_20
LBB192_19:
	movb	-449(%rbp), %al
	andb	$1, %al
	movb	%al, -359(%rbp)
	movb	$1, -360(%rbp)
	jmp	LBB192_15
LBB192_20:
	movq	-440(%rbp), %rax
	movw	%ax, %cx
	movw	$65231, %dx
	cmpw	%cx, %dx
	movw	%cx, -452(%rbp)
	jle	LBB192_23
	jmp	LBB192_22
LBB192_21:
	movb	$1, -162(%rbp)
	jmp	LBB192_24
LBB192_22:
	movb	$0, -162(%rbp)
	jmp	LBB192_24
LBB192_23:
	movw	-452(%rbp), %ax
	cmpw	$305, %ax
	jle	LBB192_21
	jmp	LBB192_22
LBB192_24:
	movq	-448(%rbp), %rax
	cmpq	$35, %rax
	setbe	%cl
	testb	$1, -162(%rbp)
	movb	%cl, -453(%rbp)
	jne	LBB192_27
	jmp	LBB192_26
LBB192_25:
	movb	$1, -161(%rbp)
	jmp	LBB192_28
LBB192_26:
	movb	$0, -161(%rbp)
	jmp	LBB192_28
LBB192_27:
	movb	-453(%rbp), %al
	testb	$1, %al
	jne	LBB192_25
	jmp	LBB192_26
LBB192_28:
	testb	$1, -161(%rbp)
	je	LBB192_30
	leaq	-336(%rbp), %rdi
	movw	-452(%rbp), %ax
	movzwl	%ax, %esi
	callq	__ZN4core3num7dec2flt9algorithm11bellerophon17hc7d09d4057a5e77aE
	movss	%xmm0, -460(%rbp)
	jmp	LBB192_31
LBB192_30:
	leaq	-336(%rbp), %rdi
	movw	-452(%rbp), %ax
	movzwl	%ax, %esi
	callq	__ZN4core3num7dec2flt9algorithm11algorithm_m17he31a078401a4b08eE
	movss	%xmm0, -464(%rbp)
	jmp	LBB192_32
LBB192_31:
	movss	-460(%rbp), %xmm0
	movss	%xmm0, -356(%rbp)
	movb	$0, -360(%rbp)
	jmp	LBB192_33
LBB192_32:
	movss	-464(%rbp), %xmm0
	movss	%xmm0, -356(%rbp)
	movb	$0, -360(%rbp)
LBB192_33:
	jmp	LBB192_10
	.cfi_endproc

	.section	__TEXT,__literal4,4byte_literals
	.p2align	2
LCPI193_0:
	.long	2143289344
LCPI193_1:
	.long	2139095040
	.section	__TEXT,__text,regular,pure_instructions
	.p2align	4, 0x90
__ZN4core3num7dec2flt7dec2flt17h8c223b0806e76db4E:
	.cfi_startproc
	pushq	%rbp
	.cfi_def_cfa_offset 16
	.cfi_offset %rbp, -16
	movq	%rsp, %rbp
	.cfi_def_cfa_register %rbp
	subq	$352, %rsp
	movq	%rdi, -240(%rbp)
	movq	%rsi, -248(%rbp)
	callq	__ZN4core3str21_$LT$impl$u20$str$GT$8is_empty17hf92e48a02e8352daE
	movb	%al, -249(%rbp)
	movb	-249(%rbp), %al
	testb	$1, %al
	jne	LBB193_2
	jmp	LBB193_3
LBB193_2:
	callq	__ZN4core3num7dec2flt9pfe_empty17h1650ea78540f205aE
	movb	%al, -250(%rbp)
	jmp	LBB193_4
LBB193_3:
	leaq	-200(%rbp), %rdi
	movq	-240(%rbp), %rsi
	movq	-248(%rbp), %rdx
	callq	__ZN4core3num7dec2flt12extract_sign17h1ce2fd756590e9c0E
	jmp	LBB193_6
LBB193_4:
	movb	-250(%rbp), %al
	andb	$1, %al
	movb	%al, -231(%rbp)
	movb	$1, -232(%rbp)
LBB193_5:
	movq	-232(%rbp), %rax
	addq	$352, %rsp
	popq	%rbp
	retq
LBB193_6:
	movb	-200(%rbp), %al
	andb	$1, %al
	movb	%al, -217(%rbp)
	movq	-192(%rbp), %rcx
	movq	-184(%rbp), %rdx
	movq	%rcx, -216(%rbp)
	movq	%rdx, -208(%rbp)
	movq	-216(%rbp), %rsi
	movq	-208(%rbp), %rdx
	leaq	-168(%rbp), %rdi
	callq	__ZN4core3num7dec2flt5parse13parse_decimal17h58a41544b4e2c5d4E
	movq	-168(%rbp), %rax
	movq	%rax, %rcx
	subq	$3, %rcx
	movq	%rax, -264(%rbp)
	movq	%rcx, -272(%rbp)
	ja	LBB193_11
	leaq	LJTI193_0(%rip), %rax
	movq	-264(%rbp), %rcx
	movslq	(%rax,%rcx,4), %rdx
	addq	%rax, %rdx
	jmpq	*%rdx
LBB193_8:
	movss	LCPI193_1(%rip), %xmm0
	movss	%xmm0, -172(%rbp)
	jmp	LBB193_13
LBB193_9:
	xorps	%xmm0, %xmm0
	movss	%xmm0, -172(%rbp)
	jmp	LBB193_13
LBB193_10:
	leaq	l___unnamed_27(%rip), %rax
	leaq	-216(%rbp), %rdi
	movq	%rax, %rsi
	callq	__ZN4core3cmp5impls91_$LT$impl$u20$core..cmp..PartialEq$LT$$RF$$u27$b$u20$B$GT$$u20$for$u20$$RF$$u27$a$u20$A$GT$2eq17ha0617db51849766cE
	movb	%al, -273(%rbp)
	jmp	LBB193_25
LBB193_11:
	ud2
LBB193_12:
	movl	$40, %eax
	movl	%eax, %ecx
	leaq	-168(%rbp), %rdx
	addq	$8, %rdx
	leaq	-120(%rbp), %rsi
	movq	%rsi, %rdi
	movq	%rsi, -288(%rbp)
	movq	%rdx, %rsi
	movq	%rcx, %rdx
	movq	%rcx, -296(%rbp)
	callq	_memcpy
	movq	-288(%rbp), %rcx
	leaq	-64(%rbp), %rdx
	movq	%rdx, %rsi
	movq	%rsi, %rdi
	movq	%rcx, %rsi
	movq	-296(%rbp), %rcx
	movq	%rdx, -304(%rbp)
	movq	%rcx, %rdx
	callq	_memcpy
	movq	-304(%rbp), %rdi
	callq	__ZN4core3num7dec2flt7convert17h9e91b595e8b8a8daE
	movq	%rax, -24(%rbp)
	movq	-24(%rbp), %rax
	movq	%rax, -72(%rbp)
	jmp	LBB193_14
LBB193_13:
	movzbl	-217(%rbp), %eax
	movl	%eax, %ecx
	movb	%cl, %dl
	testb	$1, %dl
	movq	%rcx, -312(%rbp)
	je	LBB193_28
	jmp	LBB193_34
LBB193_34:
	movq	-312(%rbp), %rax
	subq	$1, %rax
	movq	%rax, -320(%rbp)
	je	LBB193_29
	jmp	LBB193_11
LBB193_14:
	movq	-72(%rbp), %rdi
	callq	__ZN78_$LT$core..result..Result$LT$T$C$$u20$E$GT$$u20$as$u20$core..ops..try..Try$GT$11into_result17hbe70bd35eb01a9d3E
	movq	%rax, -16(%rbp)
	movq	-16(%rbp), %rax
	movq	%rax, -80(%rbp)
	movzbl	-80(%rbp), %eax
	movl	%eax, %ecx
	movb	%cl, %dl
	testb	$1, %dl
	movq	%rcx, -328(%rbp)
	je	LBB193_16
	jmp	LBB193_33
LBB193_33:
	movq	-328(%rbp), %rax
	subq	$1, %rax
	movq	%rax, -336(%rbp)
	je	LBB193_17
	jmp	LBB193_11
LBB193_16:
	movss	-76(%rbp), %xmm0
	movss	%xmm0, -172(%rbp)
	jmp	LBB193_13
LBB193_17:
	movb	-79(%rbp), %al
	andb	$1, %al
	movzbl	%al, %edi
	callq	__ZN50_$LT$T$u20$as$u20$core..convert..From$LT$T$GT$$GT$4from17h2ac243842df017efE
	movb	%al, -337(%rbp)
	movb	-337(%rbp), %al
	movzbl	%al, %ecx
	andl	$1, %ecx
	movl	%ecx, %edi
	callq	__ZN78_$LT$core..result..Result$LT$T$C$$u20$E$GT$$u20$as$u20$core..ops..try..Try$GT$10from_error17hc6e772fc9db1676eE
	movq	%rax, -8(%rbp)
	movq	-8(%rbp), %rax
	movq	%rax, -232(%rbp)
	jmp	LBB193_20
LBB193_20:
	jmp	LBB193_5
LBB193_21:
	movss	LCPI193_1(%rip), %xmm0
	movss	%xmm0, -172(%rbp)
	jmp	LBB193_13
LBB193_22:
	movss	LCPI193_0(%rip), %xmm0
	movss	%xmm0, -172(%rbp)
	jmp	LBB193_13
LBB193_23:
	callq	__ZN4core3num7dec2flt11pfe_invalid17h9aa9a1726b65d08bE
	movb	%al, -338(%rbp)
	jmp	LBB193_27
LBB193_24:
	leaq	l___unnamed_28(%rip), %rax
	leaq	-216(%rbp), %rdi
	movq	%rax, %rsi
	callq	__ZN4core3cmp5impls91_$LT$impl$u20$core..cmp..PartialEq$LT$$RF$$u27$b$u20$B$GT$$u20$for$u20$$RF$$u27$a$u20$A$GT$2eq17ha0617db51849766cE
	movb	%al, -339(%rbp)
	jmp	LBB193_26
LBB193_25:
	movb	-273(%rbp), %al
	testb	$1, %al
	jne	LBB193_21
	jmp	LBB193_24
LBB193_26:
	movb	-339(%rbp), %al
	testb	$1, %al
	jne	LBB193_22
	jmp	LBB193_23
LBB193_27:
	movb	-338(%rbp), %al
	andb	$1, %al
	movb	%al, -231(%rbp)
	movb	$1, -232(%rbp)
	jmp	LBB193_20
LBB193_28:
	movss	-172(%rbp), %xmm0
	movss	%xmm0, -228(%rbp)
	movb	$0, -232(%rbp)
	jmp	LBB193_30
LBB193_29:
	movss	-172(%rbp), %xmm0
	callq	__ZN45_$LT$f32$u20$as$u20$core..ops..arith..Neg$GT$3neg17h58f7fc38f2698134E
	movss	%xmm0, -344(%rbp)
	jmp	LBB193_31
LBB193_30:
	jmp	LBB193_5
LBB193_31:
	movss	-344(%rbp), %xmm0
	movss	%xmm0, -228(%rbp)
	movb	$0, -232(%rbp)
	jmp	LBB193_30
	.cfi_endproc
	.p2align	2, 0x90
	.data_region jt32
.set L193_0_set_12, LBB193_12-LJTI193_0
.set L193_0_set_8, LBB193_8-LJTI193_0
.set L193_0_set_9, LBB193_9-LJTI193_0
.set L193_0_set_10, LBB193_10-LJTI193_0
LJTI193_0:
	.long	L193_0_set_12
	.long	L193_0_set_8
	.long	L193_0_set_9
	.long	L193_0_set_10
	.end_data_region

	.p2align	4, 0x90
__ZN4core3num7dec2flt8simplify28_$u7b$$u7b$closure$u7d$$u7d$17h7e13141441468832E:
	.cfi_startproc
	pushq	%rbp
	.cfi_def_cfa_offset 16
	.cfi_offset %rbp, -16
	movq	%rsp, %rbp
	.cfi_def_cfa_register %rbp
	pushq	%rax
	movq	(%rsi), %rsi
	cmpb	$48, (%rsi)
	sete	%al
	andb	$1, %al
	movzbl	%al, %eax
	movq	%rdi, -8(%rbp)
	addq	$8, %rsp
	popq	%rbp
	retq
	.cfi_endproc

	.section	__TEXT,__literal4,4byte_literals
	.p2align	2
LCPI195_0:
	.long	2139095040
	.section	__TEXT,__text,regular,pure_instructions
	.p2align	4, 0x90
__ZN4core3num7dec2flt9algorithm11algorithm_m17he31a078401a4b08eE:
	.cfi_startproc
	pushq	%rbp
	.cfi_def_cfa_offset 16
	.cfi_offset %rbp, -16
	movq	%rsp, %rbp
	.cfi_def_cfa_register %rbp
	subq	$2736, %rsp
	movw	%si, %ax
	movzwl	%ax, %esi
	movq	%rdi, -2552(%rbp)
	movl	%esi, %edi
	movw	%ax, -2554(%rbp)
	callq	__ZN4core3num21_$LT$impl$u20$i16$GT$3abs17hd06809ddf0fc470fE
	movw	%ax, -2556(%rbp)
	movw	-2556(%rbp), %ax
	movswq	%ax, %rcx
	movw	$0, -2194(%rbp)
	movw	-2554(%rbp), %dx
	cmpw	$0, %dx
	movq	%rcx, -2568(%rbp)
	jge	LBB195_3
	leaq	-2192(%rbp), %rdi
	movq	-2552(%rbp), %rsi
	callq	__ZN66_$LT$core..num..bignum..Big32x40$u20$as$u20$core..clone..Clone$GT$5clone17heca4c60c503835e6E
	jmp	LBB195_4
LBB195_3:
	leaq	-1856(%rbp), %rdi
	movq	-2552(%rbp), %rsi
	callq	__ZN66_$LT$core..num..bignum..Big32x40$u20$as$u20$core..clone..Clone$GT$5clone17heca4c60c503835e6E
	jmp	LBB195_8
LBB195_4:
	movl	$168, %eax
	movl	%eax, %edx
	leaq	-2192(%rbp), %rcx
	leaq	-2536(%rbp), %rsi
	movq	%rsi, %rdi
	movq	%rcx, %rsi
	callq	_memcpy
	leaq	-2024(%rbp), %rdi
	movl	$1, %esi
	callq	__ZN4core3num6bignum8Big32x4010from_small17hacbc7ac291169ccdE
	movl	$168, %eax
	movl	%eax, %edx
	leaq	-2024(%rbp), %rcx
	leaq	-2368(%rbp), %rsi
	movq	%rsi, %rdi
	movq	%rsi, -2576(%rbp)
	movq	%rcx, %rsi
	callq	_memcpy
	movq	-2576(%rbp), %rdi
	movq	-2568(%rbp), %rsi
	callq	__ZN4core3num6bignum8Big32x408mul_pow517h41b4f39bd7e01d14E
	movq	%rax, -2584(%rbp)
	movq	-2584(%rbp), %rdi
	movq	-2568(%rbp), %rsi
	callq	__ZN4core3num6bignum8Big32x408mul_pow217hc324f7b84cebbcbeE
	movq	%rax, -2592(%rbp)
	jmp	LBB195_12
LBB195_8:
	movl	$168, %eax
	movl	%eax, %edx
	leaq	-1856(%rbp), %rcx
	leaq	-2536(%rbp), %rsi
	movq	%rsi, %rdi
	movq	%rsi, -2600(%rbp)
	movq	%rcx, %rsi
	callq	_memcpy
	movq	-2600(%rbp), %rdi
	movq	-2568(%rbp), %rsi
	callq	__ZN4core3num6bignum8Big32x408mul_pow517h41b4f39bd7e01d14E
	movq	%rax, -2608(%rbp)
	movq	-2608(%rbp), %rdi
	movq	-2568(%rbp), %rsi
	callq	__ZN4core3num6bignum8Big32x408mul_pow217hc324f7b84cebbcbeE
	movq	%rax, -2616(%rbp)
	leaq	-1688(%rbp), %rdi
	movl	$1, %esi
	callq	__ZN4core3num6bignum8Big32x4010from_small17hacbc7ac291169ccdE
	movl	$168, %eax
	movl	%eax, %edx
	leaq	-1688(%rbp), %rcx
	leaq	-2368(%rbp), %rsi
	movq	%rsi, %rdi
	movq	%rcx, %rsi
	callq	_memcpy
LBB195_12:
	leaq	-2536(%rbp), %rdi
	leaq	-2368(%rbp), %rsi
	leaq	-2194(%rbp), %rdx
	callq	__ZN4core3num7dec2flt9algorithm11quick_start17ha4d7c1fb1a14e5f7E
	xorl	%esi, %esi
	leaq	-1520(%rbp), %rdi
	callq	__ZN4core3num6bignum8Big32x4010from_small17hacbc7ac291169ccdE
	xorl	%esi, %esi
	leaq	-1352(%rbp), %rdi
	callq	__ZN4core3num6bignum8Big32x4010from_small17hacbc7ac291169ccdE
	movl	$8388608, %eax
	movl	%eax, %esi
	leaq	-1184(%rbp), %rdi
	callq	__ZN4core3num6bignum8Big32x408from_u6417h6514010552435455E
	movl	$16777215, %eax
	movl	%eax, %esi
	leaq	-1016(%rbp), %rdi
	callq	__ZN4core3num6bignum8Big32x408from_u6417h6514010552435455E
LBB195_17:
	leaq	-2536(%rbp), %rdi
	leaq	-2368(%rbp), %rsi
	leaq	-1352(%rbp), %rdx
	leaq	-1520(%rbp), %rcx
	callq	__ZN4core3num6bignum8Big32x407div_rem17h0a3e0a01d8e4810bE
	cmpw	$-149, -2194(%rbp)
	jne	LBB195_20
	leaq	-1352(%rbp), %rdi
	leaq	-1184(%rbp), %rsi
	callq	__ZN4core3cmp10PartialOrd2ge17h6e1b761c100b7b50E
	movb	%al, -2617(%rbp)
	jmp	LBB195_25
LBB195_20:
	cmpw	$104, -2194(%rbp)
	jg	LBB195_33
	jmp	LBB195_34
LBB195_21:
	movb	$1, -841(%rbp)
	jmp	LBB195_24
LBB195_22:
	movb	$0, -841(%rbp)
	jmp	LBB195_24
LBB195_23:
	leaq	-1352(%rbp), %rdi
	leaq	-1016(%rbp), %rsi
	callq	__ZN4core3cmp10PartialOrd2le17hcb5d77361f385be7E
	movb	%al, -2618(%rbp)
	jmp	LBB195_26
LBB195_24:
	testb	$1, -841(%rbp)
	jne	LBB195_27
	jmp	LBB195_28
LBB195_25:
	movb	-2617(%rbp), %al
	testb	$1, %al
	jne	LBB195_23
	jmp	LBB195_22
LBB195_26:
	movb	-2618(%rbp), %al
	testb	$1, %al
	jne	LBB195_21
	jmp	LBB195_22
LBB195_27:
	jmp	LBB195_29
LBB195_28:
	movl	$168, %eax
	movl	%eax, %ecx
	leaq	-1352(%rbp), %rdx
	leaq	-840(%rbp), %rsi
	movq	%rsi, %rdi
	movq	%rsi, -2632(%rbp)
	movq	%rdx, %rsi
	movq	%rcx, %rdx
	movq	%rcx, -2640(%rbp)
	callq	_memcpy
	leaq	-2368(%rbp), %rcx
	leaq	-672(%rbp), %rdx
	movq	%rdx, %rsi
	movq	%rsi, %rdi
	movq	%rcx, %rsi
	movq	-2640(%rbp), %rcx
	movq	%rdx, -2648(%rbp)
	movq	%rcx, %rdx
	callq	_memcpy
	leaq	-1520(%rbp), %rcx
	leaq	-504(%rbp), %rdx
	movq	%rdx, %rsi
	movq	%rsi, %rdi
	movq	%rcx, %rsi
	movq	-2640(%rbp), %rcx
	movq	%rdx, -2656(%rbp)
	movq	%rcx, %rdx
	callq	_memcpy
	movq	-2632(%rbp), %rdi
	movq	-2648(%rbp), %rsi
	movq	-2656(%rbp), %rdx
	callq	__ZN4core3num7dec2flt9algorithm9underflow17h17930501d9ea94e4E
	movss	%xmm0, -2540(%rbp)
	jmp	LBB195_30
LBB195_29:
	leaq	-1352(%rbp), %rdi
	callq	__ZN4core3num7dec2flt3num6to_u6417h40094b9eec8310abE
	movq	%rax, -2664(%rbp)
	jmp	LBB195_44
LBB195_30:
	jmp	LBB195_32
LBB195_31:
	movss	-2540(%rbp), %xmm0
	addq	$2736, %rsp
	popq	%rbp
	retq
LBB195_32:
	jmp	LBB195_31
LBB195_33:
	movss	LCPI195_0(%rip), %xmm0
	movss	%xmm0, -2540(%rbp)
	jmp	LBB195_32
LBB195_34:
	leaq	-1352(%rbp), %rdi
	leaq	-1184(%rbp), %rsi
	callq	__ZN4core3cmp10PartialOrd2lt17h4c75d35ff2316aeaE
	movb	%al, -2665(%rbp)
	movb	-2665(%rbp), %al
	testb	$1, %al
	jne	LBB195_36
	jmp	LBB195_37
LBB195_36:
	movl	$1, %eax
	movl	%eax, %esi
	leaq	-2536(%rbp), %rdi
	callq	__ZN4core3num6bignum8Big32x408mul_pow217hc324f7b84cebbcbeE
	movq	%rax, -2680(%rbp)
	jmp	LBB195_38
LBB195_37:
	leaq	-1352(%rbp), %rdi
	leaq	-1016(%rbp), %rsi
	callq	__ZN4core3cmp10PartialOrd2gt17h7c5bd8eb806f7eeeE
	movb	%al, -2681(%rbp)
	jmp	LBB195_39
LBB195_38:
	movw	-2194(%rbp), %ax
	subw	$1, %ax
	movw	%ax, -2194(%rbp)
	jmp	LBB195_43
LBB195_39:
	movb	-2681(%rbp), %al
	testb	$1, %al
	jne	LBB195_40
	jmp	LBB195_41
LBB195_40:
	movl	$1, %eax
	movl	%eax, %esi
	leaq	-2368(%rbp), %rdi
	callq	__ZN4core3num6bignum8Big32x408mul_pow217hc324f7b84cebbcbeE
	movq	%rax, -2696(%rbp)
	jmp	LBB195_42
LBB195_41:
	jmp	LBB195_29
LBB195_42:
	movw	-2194(%rbp), %ax
	addw	$1, %ax
	movw	%ax, -2194(%rbp)
LBB195_43:
	jmp	LBB195_17
LBB195_44:
	movq	-2664(%rbp), %rdi
	movzwl	-2194(%rbp), %esi
	callq	__ZN4core3num7dec2flt5rawfp8Unpacked3new17h03b317b5ba4de418E
	movq	%rax, -2704(%rbp)
	movw	%dx, -2706(%rbp)
	movq	-2704(%rbp), %rdi
	movw	-2706(%rbp), %ax
	movzwl	%ax, %esi
	callq	__ZN4core3num7dec2flt5rawfp13encode_normal17h9037f5fae495f3b4E
	movss	%xmm0, -2712(%rbp)
	movl	$168, %eax
	movl	%eax, %ecx
	leaq	-2368(%rbp), %rdx
	leaq	-336(%rbp), %rsi
	movq	%rsi, %rdi
	movq	%rsi, -2720(%rbp)
	movq	%rdx, %rsi
	movq	%rcx, %rdx
	movq	%rcx, -2728(%rbp)
	callq	_memcpy
	leaq	-1520(%rbp), %rcx
	leaq	-168(%rbp), %rdx
	movq	%rdx, %rsi
	movq	%rsi, %rdi
	movq	%rcx, %rsi
	movq	-2728(%rbp), %rcx
	movq	%rdx, -2736(%rbp)
	movq	%rcx, %rdx
	callq	_memcpy
	movq	-2720(%rbp), %rdi
	movq	-2736(%rbp), %rsi
	movq	-2664(%rbp), %rdx
	movss	-2712(%rbp), %xmm0
	callq	__ZN4core3num7dec2flt9algorithm18round_by_remainder17hf31e1f974ab7f53fE
	movss	%xmm0, -2540(%rbp)
	jmp	LBB195_31
	.cfi_endproc

	.p2align	4, 0x90
__ZN4core3num7dec2flt9algorithm11algorithm_r17h3e9f25e7f788435bE:
	.cfi_startproc
	pushq	%rbp
	.cfi_def_cfa_offset 16
	.cfi_offset %rbp, -16
	movq	%rsp, %rbp
	.cfi_def_cfa_register %rbp
	subq	$1600, %rsp
	movw	%si, %ax
	movss	%xmm0, -1388(%rbp)
	movw	%ax, -1394(%rbp)
	movq	%rdi, -1408(%rbp)
LBB196_1:
	movss	-1388(%rbp), %xmm0
	callq	__ZN59_$LT$f32$u20$as$u20$core..num..dec2flt..rawfp..RawFloat$GT$6unpack17h5031bc4d3f5adec3E
	movq	%rax, -1416(%rbp)
	movw	%dx, -1418(%rbp)
	movq	-1416(%rbp), %rax
	movq	%rax, -1384(%rbp)
	movw	-1418(%rbp), %cx
	movw	%cx, -1376(%rbp)
	movq	-1384(%rbp), %rdx
	movw	-1376(%rbp), %si
	leaq	-1368(%rbp), %rdi
	movq	-1408(%rbp), %r8
	movw	%si, -1420(%rbp)
	movq	%r8, %rsi
	movq	%rdx, -1432(%rbp)
	callq	__ZN66_$LT$core..num..bignum..Big32x40$u20$as$u20$core..clone..Clone$GT$5clone17heca4c60c503835e6E
	leaq	-1200(%rbp), %rdi
	movq	-1432(%rbp), %rsi
	callq	__ZN4core3num6bignum8Big32x408from_u6417h6514010552435455E
	leaq	-1368(%rbp), %rdi
	leaq	-1200(%rbp), %rsi
	movw	-1394(%rbp), %ax
	movzwl	%ax, %edx
	movw	-1420(%rbp), %cx
	movzwl	%cx, %ecx
	callq	__ZN4core3num7dec2flt9algorithm10make_ratio17hc1b29af8a58430b3E
	movl	$4294967295, %eax
	movl	%eax, %ecx
	movq	-1432(%rbp), %rdx
	andq	%rcx, %rdx
	movl	%edx, %eax
	movq	-1432(%rbp), %rcx
	shrq	$32, %rcx
	movl	%ecx, %esi
	movl	%eax, -1032(%rbp)
	movl	%esi, -1028(%rbp)
	leaq	-1368(%rbp), %rdi
	leaq	-1200(%rbp), %rsi
	callq	__ZN4core3cmp10PartialOrd2ge17h6e1b761c100b7b50E
	movb	%al, -1433(%rbp)
	movb	-1433(%rbp), %al
	testb	$1, %al
	jne	LBB196_7
	jmp	LBB196_8
LBB196_7:
	leaq	-1368(%rbp), %rdi
	leaq	-1200(%rbp), %rsi
	callq	__ZN4core3num6bignum8Big32x403sub17hd275b48ad62b9c55E
	movq	%rax, -1448(%rbp)
	jmp	LBB196_9
LBB196_8:
	leaq	-512(%rbp), %rdi
	leaq	-1200(%rbp), %rsi
	callq	__ZN66_$LT$core..num..bignum..Big32x40$u20$as$u20$core..clone..Clone$GT$5clone17heca4c60c503835e6E
	jmp	LBB196_12
LBB196_9:
	movl	$1, %eax
	movl	%eax, %esi
	movq	-1448(%rbp), %rdi
	callq	__ZN4core3num6bignum8Big32x408mul_pow217hc324f7b84cebbcbeE
	movq	%rax, -1456(%rbp)
	movl	$2, %eax
	movl	%eax, %edx
	leaq	-1032(%rbp), %rcx
	movq	-1456(%rbp), %rdi
	movq	%rcx, %rsi
	callq	__ZN4core3num6bignum8Big32x4010mul_digits17hccc1b170c18d70ccE
	movq	%rax, -1464(%rbp)
	movl	$168, %eax
	movl	%eax, %ecx
	leaq	-1368(%rbp), %rdx
	leaq	-680(%rbp), %rsi
	movq	%rsi, %rdi
	movq	%rsi, -1472(%rbp)
	movq	%rdx, %rsi
	movq	%rcx, %rdx
	movq	%rcx, -1480(%rbp)
	callq	_memcpy
	leaq	-856(%rbp), %rcx
	movq	-1472(%rbp), %rdx
	movq	%rcx, %rdi
	movq	%rdx, %rsi
	movq	-1480(%rbp), %rdx
	callq	_memcpy
	movb	$0, -688(%rbp)
	jmp	LBB196_16
LBB196_12:
	leaq	-512(%rbp), %rdi
	leaq	-1368(%rbp), %rsi
	callq	__ZN4core3num6bignum8Big32x403sub17hd275b48ad62b9c55E
	movq	%rax, -1488(%rbp)
	movl	$1, %eax
	movl	%eax, %esi
	movq	-1488(%rbp), %rdi
	callq	__ZN4core3num6bignum8Big32x408mul_pow217hc324f7b84cebbcbeE
	movq	%rax, -1496(%rbp)
	movl	$2, %eax
	movl	%eax, %edx
	leaq	-1032(%rbp), %rcx
	movq	-1496(%rbp), %rdi
	movq	%rcx, %rsi
	callq	__ZN4core3num6bignum8Big32x4010mul_digits17hccc1b170c18d70ccE
	movq	%rax, -1504(%rbp)
	movl	$168, %eax
	movl	%eax, %ecx
	leaq	-512(%rbp), %rdx
	leaq	-344(%rbp), %rsi
	movq	%rsi, %rdi
	movq	%rsi, -1512(%rbp)
	movq	%rdx, %rsi
	movq	%rcx, %rdx
	movq	%rcx, -1520(%rbp)
	callq	_memcpy
	leaq	-856(%rbp), %rcx
	movq	-1512(%rbp), %rdx
	movq	%rcx, %rdi
	movq	%rdx, %rsi
	movq	-1520(%rbp), %rdx
	callq	_memcpy
	movb	$1, -688(%rbp)
LBB196_16:
	movl	$168, %eax
	movl	%eax, %edx
	leaq	-856(%rbp), %rcx
	leaq	-1024(%rbp), %rsi
	movq	%rsi, %rdi
	movq	%rsi, -1528(%rbp)
	movq	%rcx, %rsi
	callq	_memcpy
	movb	-688(%rbp), %r8b
	movq	-1528(%rbp), %rdi
	leaq	-1200(%rbp), %rsi
	movb	%r8b, -1529(%rbp)
	callq	__ZN4core3cmp10PartialOrd2lt17h4c75d35ff2316aeaE
	movb	%al, -1530(%rbp)
	movb	-1530(%rbp), %al
	testb	$1, %al
	jne	LBB196_18
	jmp	LBB196_19
LBB196_18:
	movl	$1, %eax
	movl	%eax, %esi
	movl	$168, %eax
	movl	%eax, %edx
	leaq	-1024(%rbp), %rcx
	leaq	-176(%rbp), %rdi
	movq	%rdi, %r8
	movq	%rdi, -1544(%rbp)
	movq	%r8, %rdi
	movq	%rsi, -1552(%rbp)
	movq	%rcx, %rsi
	callq	_memcpy
	movq	-1544(%rbp), %rdi
	movq	-1552(%rbp), %rsi
	callq	__ZN4core3num6bignum8Big32x408mul_pow217hc324f7b84cebbcbeE
	movq	%rax, -1560(%rbp)
	jmp	LBB196_20
LBB196_19:
	leaq	-1024(%rbp), %rdi
	leaq	-1200(%rbp), %rsi
	callq	__ZN68_$LT$core..num..bignum..Big32x40$u20$as$u20$core..cmp..PartialEq$GT$2eq17h2a893620ffa81041E
	movb	%al, -1561(%rbp)
	jmp	LBB196_34
LBB196_20:
	movq	-1432(%rbp), %rax
	cmpq	$8388608, %rax
	je	LBB196_27
	jmp	LBB196_26
LBB196_21:
	movb	$1, -3(%rbp)
	jmp	LBB196_24
LBB196_22:
	movb	$0, -3(%rbp)
	jmp	LBB196_24
LBB196_23:
	leaq	-176(%rbp), %rdi
	leaq	-1200(%rbp), %rsi
	callq	__ZN4core3cmp10PartialOrd2gt17h7c5bd8eb806f7eeeE
	movb	%al, -1562(%rbp)
	jmp	LBB196_29
LBB196_24:
	testb	$1, -3(%rbp)
	jne	LBB196_30
	jmp	LBB196_31
LBB196_25:
	movb	$1, -2(%rbp)
	jmp	LBB196_28
LBB196_26:
	movb	$0, -2(%rbp)
	jmp	LBB196_28
LBB196_27:
	movb	-1529(%rbp), %al
	testb	$1, %al
	jne	LBB196_25
	jmp	LBB196_26
LBB196_28:
	testb	$1, -2(%rbp)
	jne	LBB196_23
	jmp	LBB196_22
LBB196_29:
	movb	-1562(%rbp), %al
	testb	$1, %al
	jne	LBB196_21
	jmp	LBB196_22
LBB196_30:
	movss	-1388(%rbp), %xmm0
	callq	__ZN4core3num7dec2flt5rawfp10prev_float17h526100c950e3b518E
	movss	%xmm0, -1568(%rbp)
	jmp	LBB196_32
LBB196_31:
	movss	-1388(%rbp), %xmm0
	movss	%xmm0, -1392(%rbp)
	jmp	LBB196_33
LBB196_32:
	movss	-1568(%rbp), %xmm0
	movss	%xmm0, -1388(%rbp)
	jmp	LBB196_59
LBB196_33:
	movss	-1392(%rbp), %xmm0
	addq	$1600, %rsp
	popq	%rbp
	retq
LBB196_34:
	movb	-1561(%rbp), %al
	testb	$1, %al
	jne	LBB196_35
	jmp	LBB196_36
LBB196_35:
	jmp	LBB196_37
LBB196_36:
	movb	-1529(%rbp), %al
	testb	$1, %al
	jne	LBB196_53
	jmp	LBB196_54
LBB196_37:
	movq	-1432(%rbp), %rax
	andq	$1, %rax
	cmpq	$0, %rax
	jne	LBB196_39
	movq	-1432(%rbp), %rax
	cmpq	$8388608, %rax
	je	LBB196_42
	jmp	LBB196_41
LBB196_39:
	movb	-1529(%rbp), %al
	testb	$1, %al
	jne	LBB196_47
	jmp	LBB196_48
LBB196_40:
	movb	$1, -1(%rbp)
	jmp	LBB196_43
LBB196_41:
	movb	$0, -1(%rbp)
	jmp	LBB196_43
LBB196_42:
	movb	-1529(%rbp), %al
	testb	$1, %al
	jne	LBB196_40
	jmp	LBB196_41
LBB196_43:
	testb	$1, -1(%rbp)
	je	LBB196_45
	movss	-1388(%rbp), %xmm0
	callq	__ZN4core3num7dec2flt5rawfp10prev_float17h526100c950e3b518E
	movss	%xmm0, -1572(%rbp)
	jmp	LBB196_46
LBB196_45:
	movss	-1388(%rbp), %xmm0
	movss	%xmm0, -1392(%rbp)
	jmp	LBB196_33
LBB196_46:
	movss	-1572(%rbp), %xmm0
	movss	%xmm0, -1388(%rbp)
	jmp	LBB196_52
LBB196_47:
	movss	-1388(%rbp), %xmm0
	callq	__ZN4core3num7dec2flt5rawfp10prev_float17h526100c950e3b518E
	movss	%xmm0, -1576(%rbp)
	jmp	LBB196_49
LBB196_48:
	movss	-1388(%rbp), %xmm0
	callq	__ZN4core3num7dec2flt5rawfp10next_float17hb554f2e3acd9e989E
	movss	%xmm0, -1580(%rbp)
	jmp	LBB196_50
LBB196_49:
	movss	-1576(%rbp), %xmm0
	movss	%xmm0, -1388(%rbp)
	jmp	LBB196_51
LBB196_50:
	movss	-1580(%rbp), %xmm0
	movss	%xmm0, -1388(%rbp)
LBB196_51:
	jmp	LBB196_52
LBB196_52:
	jmp	LBB196_58
LBB196_53:
	movss	-1388(%rbp), %xmm0
	callq	__ZN4core3num7dec2flt5rawfp10prev_float17h526100c950e3b518E
	movss	%xmm0, -1584(%rbp)
	jmp	LBB196_55
LBB196_54:
	movss	-1388(%rbp), %xmm0
	callq	__ZN4core3num7dec2flt5rawfp10next_float17hb554f2e3acd9e989E
	movss	%xmm0, -1588(%rbp)
	jmp	LBB196_56
LBB196_55:
	movss	-1584(%rbp), %xmm0
	movss	%xmm0, -1388(%rbp)
	jmp	LBB196_57
LBB196_56:
	movss	-1588(%rbp), %xmm0
	movss	%xmm0, -1388(%rbp)
LBB196_57:
	jmp	LBB196_58
LBB196_58:
	jmp	LBB196_59
LBB196_59:
	jmp	LBB196_1
	.cfi_endproc

	.p2align	4, 0x90
__ZN4core3num7dec2flt9algorithm11bellerophon17hc7d09d4057a5e77aE:
	.cfi_startproc
	pushq	%rbp
	.cfi_def_cfa_offset 16
	.cfi_offset %rbp, -16
	movq	%rsp, %rbp
	.cfi_def_cfa_register %rbp
	subq	$320, %rsp
	movw	%si, %ax
	movl	$16777215, %esi
	movq	%rdi, -264(%rbp)
	leaq	-232(%rbp), %rdi
	movw	%ax, -266(%rbp)
	callq	__ZN4core3num6bignum8Big32x408from_u6417h6514010552435455E
	leaq	-232(%rbp), %rax
	movq	%rax, -240(%rbp)
	leaq	-264(%rbp), %rdi
	leaq	-240(%rbp), %rsi
	callq	__ZN4core3cmp5impls92_$LT$impl$u20$core..cmp..PartialOrd$LT$$RF$$u27$b$u20$B$GT$$u20$for$u20$$RF$$u27$a$u20$A$GT$2le17h2e667282f5c184a4E
	movb	%al, -267(%rbp)
	movb	-267(%rbp), %al
	testb	$1, %al
	jne	LBB197_3
	jmp	LBB197_4
LBB197_3:
	movw	-266(%rbp), %ax
	cmpw	$0, %ax
	jge	LBB197_5
	jmp	LBB197_6
LBB197_4:
	movw	-266(%rbp), %ax
	cmpw	$0, %ax
	jge	LBB197_8
	jmp	LBB197_9
LBB197_5:
	movq	$0, -64(%rbp)
	jmp	LBB197_7
LBB197_6:
	movq	$3, -64(%rbp)
LBB197_7:
	movq	-64(%rbp), %rax
	movq	%rax, -248(%rbp)
	jmp	LBB197_11
LBB197_8:
	movq	$1, -56(%rbp)
	jmp	LBB197_10
LBB197_9:
	movq	$4, -56(%rbp)
LBB197_10:
	movq	-56(%rbp), %rax
	movq	%rax, -248(%rbp)
LBB197_11:
	movq	-264(%rbp), %rdi
	callq	__ZN4core3num7dec2flt5rawfp9big_to_fp17ha8fe108d954ae881E
	movw	%dx, -24(%rbp)
	movq	%rax, -32(%rbp)
	movw	-266(%rbp), %cx
	movw	%cx, %ax
	movl	%eax, %edi
	callq	__ZN4core3num7dec2flt9algorithm12power_of_ten17h8f160c6cffa86952E
	movw	%dx, -8(%rbp)
	movq	%rax, -16(%rbp)
	leaq	-32(%rbp), %rdi
	leaq	-16(%rbp), %rsi
	callq	__ZN4core3num9diy_float2Fp3mul17h3f16d40d9ed033b1E
	movw	%dx, -40(%rbp)
	movq	%rax, -48(%rbp)
	leaq	-48(%rbp), %rdi
	callq	__ZN4core3num9diy_float2Fp9normalize17h9d8f16a365a4d682E
	movq	%rax, -280(%rbp)
	movw	%dx, -282(%rbp)
	jmp	LBB197_16
LBB197_16:
	movabsq	$1099511627775, %rax
	movq	-280(%rbp), %rcx
	andq	%rax, %rcx
	movq	%rcx, -296(%rbp)
	jmp	LBB197_18
LBB197_18:
	movabsq	$549755813888, %rax
	movq	-296(%rbp), %rcx
	subq	%rax, %rcx
	movq	%rcx, %rdi
	callq	__ZN4core3num21_$LT$impl$u20$i64$GT$3abs17h1462c3222bc50ae6E
	movq	%rax, -304(%rbp)
	movq	-304(%rbp), %rax
	cmpq	-248(%rbp), %rax
	jg	LBB197_21
	movq	-264(%rbp), %rdi
	movq	-280(%rbp), %rax
	movq	%rdi, -312(%rbp)
	movq	%rax, %rdi
	movw	-282(%rbp), %cx
	movzwl	%cx, %esi
